	.file	"vterminal.c"
	.text
.Ltext0:
	.file 1 "drivers/tty/vterminal.c"
	.type	intr_enabled, @function
intr_enabled:
.LFB0:
	.file 2 "include/main/interrupt.h"
	.loc 2 82 1
	.cfi_startproc
	pushq	%rbp
	.cfi_def_cfa_offset 16
	.cfi_offset 6, -16
	movq	%rsp, %rbp
	.cfi_def_cfa_register 6
	subq	$16, %rsp
	.loc 2 84 5
#APP
# 84 "include/main/interrupt.h" 1
	pushf; pop %rax; and $0x200, %rax;
# 0 "" 2
#NO_APP
	movq	%rax, -8(%rbp)
	.loc 2 86 12
	movq	-8(%rbp), %rax
	.loc 2 87 1
	leave
	.cfi_restore 6
	.cfi_def_cfa 7, 8
	ret
	.cfi_endproc
.LFE0:
	.size	intr_enabled, .-intr_enabled
	.type	intr_enable, @function
intr_enable:
.LFB1:
	.loc 2 89 34
	.cfi_startproc
	pushq	%rbp
	.cfi_def_cfa_offset 16
	.cfi_offset 6, -16
	movq	%rsp, %rbp
	.cfi_def_cfa_register 6
	.loc 2 89 36
#APP
# 89 "include/main/interrupt.h" 1
	sti
# 0 "" 2
	.loc 2 89 61
#NO_APP
	nop
	popq	%rbp
	.cfi_restore 6
	.cfi_def_cfa 7, 8
	ret
	.cfi_endproc
.LFE1:
	.size	intr_enable, .-intr_enable
	.type	intr_disable, @function
intr_disable:
.LFB2:
	.loc 2 91 35
	.cfi_startproc
	pushq	%rbp
	.cfi_def_cfa_offset 16
	.cfi_offset 6, -16
	movq	%rsp, %rbp
	.cfi_def_cfa_register 6
	.loc 2 91 37
#APP
# 91 "include/main/interrupt.h" 1
	cli
# 0 "" 2
	.loc 2 91 62
#NO_APP
	nop
	popq	%rbp
	.cfi_restore 6
	.cfi_def_cfa 7, 8
	ret
	.cfi_endproc
.LFE2:
	.size	intr_disable, .-intr_disable
	.type	intr_wait, @function
intr_wait:
.LFB3:
	.loc 2 98 1
	.cfi_startproc
	pushq	%rbp
	.cfi_def_cfa_offset 16
	.cfi_offset 6, -16
	movq	%rsp, %rbp
	.cfi_def_cfa_register 6
	.loc 2 105 5
#APP
# 105 "include/main/interrupt.h" 1
	sti; hlt
# 0 "" 2
	.loc 2 106 1
#NO_APP
	nop
	popq	%rbp
	.cfi_restore 6
	.cfi_def_cfa 7, 8
	ret
	.cfi_endproc
.LFE3:
	.size	intr_wait, .-intr_wait
	.type	equals, @function
equals:
.LFB4:
	.file 3 "include/util/debug.h"
	.loc 3 280 1
	.cfi_startproc
	pushq	%rbp
	.cfi_def_cfa_offset 16
	.cfi_offset 6, -16
	movq	%rsp, %rbp
	.cfi_def_cfa_register 6
	subq	$16, %rsp
	movq	%rdi, -8(%rbp)
	movq	%rsi, -16(%rbp)
	.loc 3 281 14
	movq	-8(%rbp), %rax
	cmpq	-16(%rbp), %rax
	sete	%al
	movzbl	%al, %eax
	.loc 3 282 1
	leave
	.cfi_restore 6
	.cfi_def_cfa 7, 8
	ret
	.cfi_endproc
.LFE4:
	.size	equals, .-equals
	.type	notequals, @function
notequals:
.LFB5:
	.loc 3 284 39
	.cfi_startproc
	pushq	%rbp
	.cfi_def_cfa_offset 16
	.cfi_offset 6, -16
	movq	%rsp, %rbp
	.cfi_def_cfa_register 6
	subq	$16, %rsp
	movq	%rdi, -8(%rbp)
	movq	%rsi, -16(%rbp)
	.loc 3 284 50
	movq	-8(%rbp), %rax
	cmpq	-16(%rbp), %rax
	setne	%al
	movzbl	%al, %eax
	.loc 3 284 56
	leave
	.cfi_restore 6
	.cfi_def_cfa 7, 8
	ret
	.cfi_endproc
.LFE5:
	.size	notequals, .-notequals
	.type	lessthan, @function
lessthan:
.LFB6:
	.loc 3 286 38
	.cfi_startproc
	pushq	%rbp
	.cfi_def_cfa_offset 16
	.cfi_offset 6, -16
	movq	%rsp, %rbp
	.cfi_def_cfa_register 6
	subq	$16, %rsp
	movq	%rdi, -8(%rbp)
	movq	%rsi, -16(%rbp)
	.loc 3 286 49
	movq	-8(%rbp), %rax
	cmpq	-16(%rbp), %rax
	setl	%al
	movzbl	%al, %eax
	.loc 3 286 54
	leave
	.cfi_restore 6
	.cfi_def_cfa 7, 8
	ret
	.cfi_endproc
.LFE6:
	.size	lessthan, .-lessthan
	.type	greaterthan, @function
greaterthan:
.LFB7:
	.loc 3 288 41
	.cfi_startproc
	pushq	%rbp
	.cfi_def_cfa_offset 16
	.cfi_offset 6, -16
	movq	%rsp, %rbp
	.cfi_def_cfa_register 6
	subq	$16, %rsp
	movq	%rdi, -8(%rbp)
	movq	%rsi, -16(%rbp)
	.loc 3 288 52
	movq	-8(%rbp), %rax
	cmpq	-16(%rbp), %rax
	setg	%al
	movzbl	%al, %eax
	.loc 3 288 57
	leave
	.cfi_restore 6
	.cfi_def_cfa 7, 8
	ret
	.cfi_endproc
.LFE7:
	.size	greaterthan, .-greaterthan
	.type	lessthaneq, @function
lessthaneq:
.LFB8:
	.loc 3 290 40
	.cfi_startproc
	pushq	%rbp
	.cfi_def_cfa_offset 16
	.cfi_offset 6, -16
	movq	%rsp, %rbp
	.cfi_def_cfa_register 6
	subq	$16, %rsp
	movq	%rdi, -8(%rbp)
	movq	%rsi, -16(%rbp)
	.loc 3 290 51
	movq	-8(%rbp), %rax
	cmpq	-16(%rbp), %rax
	setle	%al
	movzbl	%al, %eax
	.loc 3 290 57
	leave
	.cfi_restore 6
	.cfi_def_cfa 7, 8
	ret
	.cfi_endproc
.LFE8:
	.size	lessthaneq, .-lessthaneq
	.type	greaterthaneq, @function
greaterthaneq:
.LFB9:
	.loc 3 292 43
	.cfi_startproc
	pushq	%rbp
	.cfi_def_cfa_offset 16
	.cfi_offset 6, -16
	movq	%rsp, %rbp
	.cfi_def_cfa_register 6
	subq	$16, %rsp
	movq	%rdi, -8(%rbp)
	movq	%rsi, -16(%rbp)
	.loc 3 292 54
	movq	-8(%rbp), %rax
	cmpq	-16(%rbp), %rax
	setge	%al
	movzbl	%al, %eax
	.loc 3 292 60
	leave
	.cfi_restore 6
	.cfi_def_cfa 7, 8
	ret
	.cfi_endproc
.LFE9:
	.size	greaterthaneq, .-greaterthaneq
	.globl	vtconsole
	.type	vtconsole, @function
vtconsole:
.LFB10:
	.loc 1 648 1
	.cfi_startproc
	pushq	%rbp
	.cfi_def_cfa_offset 16
	.cfi_offset 6, -16
	movq	%rsp, %rbp
	.cfi_def_cfa_register 6
	pushq	%rbx
	subq	$200, %rsp
	.cfi_offset 3, -24
	movq	%rdi, -184(%rbp)
	movl	%esi, -188(%rbp)
	movl	%edx, -192(%rbp)
	movq	%rcx, -200(%rbp)
	movq	%r8, -208(%rbp)
	.loc 1 649 16
	movq	-184(%rbp), %rax
	movl	-188(%rbp), %edx
	movl	%edx, (%rax)
	.loc 1 650 17
	movq	-184(%rbp), %rax
	movl	-192(%rbp), %edx
	movl	%edx, 4(%rax)
	.loc 1 653 14
	movl	$0, -96(%rbp)
	.loc 1 654 14
	movl	$0, -28(%rbp)
	.loc 1 656 5
	leaq	-96(%rbp), %rax
	addq	$4, %rax
	movl	$64, %edx
	movl	$0, %esi
	movq	%rax, %rdi
	movabsq	$memset, %rax
	call	*%rax
.LVL0:
	.loc 1 658 21
	movq	-184(%rbp), %rax
	movq	-96(%rbp), %rcx
	movq	-88(%rbp), %rbx
	movq	%rcx, 20(%rax)
	movq	%rbx, 28(%rax)
	movq	-80(%rbp), %rcx
	movq	-72(%rbp), %rbx
	movq	%rcx, 36(%rax)
	movq	%rbx, 44(%rax)
	movq	-64(%rbp), %rcx
	movq	-56(%rbp), %rbx
	movq	%rcx, 52(%rax)
	movq	%rbx, 60(%rax)
	movq	-48(%rbp), %rcx
	movq	-40(%rbp), %rbx
	movq	%rcx, 68(%rax)
	movq	%rbx, 76(%rax)
	movq	-32(%rbp), %rdx
	movq	%rdx, 84(%rax)
	.loc 1 660 15
	movq	-184(%rbp), %rax
	movl	$0, 8(%rax)
	movq	-184(%rbp), %rax
	movl	$7, 12(%rax)
	movq	-184(%rbp), %rax
	movl	$0, 16(%rax)
	.loc 1 662 33
	movl	-188(%rbp), %eax
	imull	-192(%rbp), %eax
	cltq
	.loc 1 662 19
	salq	$4, %rax
	movq	%rax, %rdi
	movabsq	$kmalloc, %rax
	call	*%rax
.LVL1:
	.loc 1 662 17
	movq	-184(%rbp), %rdx
	movq	%rax, 96(%rdx)
	.loc 1 664 17
	movl	$512, %edi
	movabsq	$kmalloc, %rax
	call	*%rax
.LVL2:
	.loc 1 664 15
	movq	-184(%rbp), %rdx
	movq	%rax, 104(%rdx)
	.loc 1 665 20
	movq	-184(%rbp), %rax
	movl	$0, 112(%rax)
	.loc 1 667 17
	movq	-184(%rbp), %rax
	movl	$0, 116(%rax)
	movq	-184(%rbp), %rax
	movl	$0, 120(%rax)
	.loc 1 669 19
	movq	-184(%rbp), %rax
	movq	-200(%rbp), %rdx
	movq	%rdx, 128(%rax)
	.loc 1 670 18
	movq	-184(%rbp), %rax
	movq	-208(%rbp), %rdx
	movq	%rdx, 136(%rax)
	.loc 1 672 5
	movl	-192(%rbp), %eax
	leal	-1(%rax), %ecx
	movl	-188(%rbp), %edx
	movq	-184(%rbp), %rax
	movl	%ecx, %r8d
	movl	%edx, %ecx
	movl	$0, %edx
	movl	$0, %esi
	movq	%rax, %rdi
	movabsq	$vtconsole_clear, %rax
	call	*%rax
.LVL3:
	.loc 1 674 12
	movq	-184(%rbp), %rax
	.loc 1 675 1
	movq	-8(%rbp), %rbx
	leave
	.cfi_restore 6
	.cfi_restore 3
	.cfi_def_cfa 7, 8
	ret
	.cfi_endproc
.LFE10:
	.size	vtconsole, .-vtconsole
	.globl	vtconsole_delete
	.type	vtconsole_delete, @function
vtconsole_delete:
.LFB11:
	.loc 1 679 1
	.cfi_startproc
	pushq	%rbp
	.cfi_def_cfa_offset 16
	.cfi_offset 6, -16
	movq	%rsp, %rbp
	.cfi_def_cfa_register 6
	subq	$16, %rsp
	movq	%rdi, -8(%rbp)
	.loc 1 680 14
	movq	-8(%rbp), %rax
	movq	96(%rax), %rax
	.loc 1 680 5
	movq	%rax, %rdi
	movabsq	$kfree, %rax
	call	*%rax
.LVL4:
	.loc 1 681 14
	movq	-8(%rbp), %rax
	movq	104(%rax), %rax
	.loc 1 681 5
	movq	%rax, %rdi
	movabsq	$kfree, %rax
	call	*%rax
.LVL5:
	.loc 1 682 5
	movq	-8(%rbp), %rax
	movq	%rax, %rdi
	movabsq	$kfree, %rax
	call	*%rax
.LVL6:
	.loc 1 683 1
	nop
	leave
	.cfi_restore 6
	.cfi_def_cfa 7, 8
	ret
	.cfi_endproc
.LFE11:
	.size	vtconsole_delete, .-vtconsole_delete
	.globl	vtconsole_clear
	.type	vtconsole_clear, @function
vtconsole_clear:
.LFB12:
	.loc 1 689 1
	.cfi_startproc
	pushq	%rbp
	.cfi_def_cfa_offset 16
	.cfi_offset 6, -16
	movq	%rsp, %rbp
	.cfi_def_cfa_register 6
	subq	$64, %rsp
	movq	%rdi, -40(%rbp)
	movl	%esi, -44(%rbp)
	movl	%edx, -48(%rbp)
	movl	%ecx, -52(%rbp)
	movl	%r8d, -56(%rbp)
.LBB2:
	.loc 1 690 37
	movq	-40(%rbp), %rax
	movl	(%rax), %eax
	.loc 1 690 32
	imull	-48(%rbp), %eax
	movl	%eax, %edx
	.loc 1 690 14
	movl	-44(%rbp), %eax
	addl	%edx, %eax
	movl	%eax, -4(%rbp)
	.loc 1 690 5
	jmp	.L22
.L24:
.LBB3:
	.loc 1 692 30
	movq	-40(%rbp), %rax
	movq	96(%rax), %rax
	.loc 1 692 38
	movl	-4(%rbp), %edx
	movslq	%edx, %rdx
	salq	$4, %rdx
	.loc 1 692 19
	addq	%rdx, %rax
	movq	%rax, -16(%rbp)
	.loc 1 694 20
	movq	-16(%rbp), %rax
	movl	$0, 4(%rax)
	movq	-16(%rbp), %rax
	movl	$7, 8(%rax)
	movq	-16(%rbp), %rax
	movl	$0, 12(%rax)
	.loc 1 695 17
	movq	-16(%rbp), %rax
	movb	$32, (%rax)
	.loc 1 697 16
	movq	-40(%rbp), %rax
	movq	128(%rax), %rax
	.loc 1 697 12
	testq	%rax, %rax
	je	.L23
	.loc 1 699 16
	movq	-40(%rbp), %rax
	movq	128(%rax), %r8
	.loc 1 699 61
	movq	-40(%rbp), %rax
	movl	(%rax), %ecx
	.loc 1 699 13
	movl	-4(%rbp), %eax
	cltd
	idivl	%ecx
	movl	%eax, %edi
	.loc 1 699 45
	movq	-40(%rbp), %rax
	movl	(%rax), %ecx
	.loc 1 699 13
	movl	-4(%rbp), %eax
	cltd
	idivl	%ecx
	movq	-16(%rbp), %rsi
	movq	-40(%rbp), %rax
	movl	%edi, %ecx
	movq	%rax, %rdi
	call	*%r8
.LVL7:
.L23:
.LBE3:
	.loc 1 690 75 discriminator 2
	addl	$1, -4(%rbp)
.L22:
	.loc 1 690 65 discriminator 1
	movq	-40(%rbp), %rax
	movl	(%rax), %eax
	.loc 1 690 60 discriminator 1
	imull	-56(%rbp), %eax
	movl	%eax, %edx
	.loc 1 690 54 discriminator 1
	movl	-52(%rbp), %eax
	addl	%edx, %eax
	.loc 1 690 48 discriminator 1
	cmpl	%eax, -4(%rbp)
	jl	.L24
.LBE2:
	.loc 1 702 1
	nop
	nop
	leave
	.cfi_restore 6
	.cfi_def_cfa 7, 8
	ret
	.cfi_endproc
.LFE12:
	.size	vtconsole_clear, .-vtconsole_clear
	.globl	vtconsole_scroll
	.type	vtconsole_scroll, @function
vtconsole_scroll:
.LFB13:
	.loc 1 706 1
	.cfi_startproc
	pushq	%rbp
	.cfi_def_cfa_offset 16
	.cfi_offset 6, -16
	movq	%rsp, %rbp
	.cfi_def_cfa_register 6
	subq	$48, %rsp
	movq	%rdi, -40(%rbp)
	movl	%esi, -44(%rbp)
	.loc 1 707 8
	cmpl	$0, -44(%rbp)
	je	.L35
	.loc 1 710 24
	movq	-40(%rbp), %rax
	movl	4(%rax), %eax
	.loc 1 710 11
	movl	-44(%rbp), %edx
	cmpl	%eax, %edx
	cmovle	%edx, %eax
	movl	%eax, -44(%rbp)
.LBB4:
	.loc 1 713 14
	movl	$0, -4(%rbp)
	.loc 1 713 5
	jmp	.L28
.L30:
	.loc 1 716 29
	movq	-40(%rbp), %rax
	movq	96(%rax), %rdx
	.loc 1 716 46
	movq	-40(%rbp), %rax
	movl	(%rax), %eax
	.loc 1 716 54
	imull	-44(%rbp), %eax
	movl	%eax, %ecx
	.loc 1 716 40
	movl	-4(%rbp), %eax
	addl	%ecx, %eax
	cltq
	.loc 1 716 37
	salq	$4, %rax
	addq	%rax, %rdx
	.loc 1 716 12
	movq	-40(%rbp), %rax
	movq	96(%rax), %rax
	.loc 1 716 20
	movl	-4(%rbp), %ecx
	movslq	%ecx, %rcx
	salq	$4, %rcx
	addq	%rax, %rcx
	.loc 1 716 24
	movq	(%rdx), %rax
	movq	8(%rdx), %rdx
	movq	%rax, (%rcx)
	movq	%rdx, 8(%rcx)
	.loc 1 718 16
	movq	-40(%rbp), %rax
	movq	128(%rax), %rax
	.loc 1 718 12
	testq	%rax, %rax
	je	.L29
	.loc 1 720 16
	movq	-40(%rbp), %rax
	movq	128(%rax), %r8
	.loc 1 720 72
	movq	-40(%rbp), %rax
	movl	(%rax), %esi
	.loc 1 720 13
	movl	-4(%rbp), %eax
	cltd
	idivl	%esi
	movl	%eax, %r9d
	.loc 1 720 56
	movq	-40(%rbp), %rax
	movl	(%rax), %ecx
	.loc 1 720 13
	movl	-4(%rbp), %eax
	cltd
	idivl	%ecx
	movl	%edx, %edi
	.loc 1 720 36
	movq	-40(%rbp), %rax
	movq	96(%rax), %rax
	.loc 1 720 44
	movl	-4(%rbp), %edx
	movslq	%edx, %rdx
	salq	$4, %rdx
	.loc 1 720 13
	leaq	(%rax,%rdx), %rsi
	movq	-40(%rbp), %rax
	movl	%r9d, %ecx
	movl	%edi, %edx
	movq	%rax, %rdi
	call	*%r8
.LVL8:
.L29:
	.loc 1 714 11
	addl	$1, -4(%rbp)
.L28:
	.loc 1 713 30 discriminator 1
	movq	-40(%rbp), %rax
	movl	(%rax), %edx
	.loc 1 713 43 discriminator 1
	movq	-40(%rbp), %rax
	movl	4(%rax), %eax
	.loc 1 713 38 discriminator 1
	imull	%eax, %edx
	.loc 1 713 59 discriminator 1
	movq	-40(%rbp), %rax
	movl	(%rax), %eax
	.loc 1 713 67 discriminator 1
	imull	-44(%rbp), %eax
	.loc 1 713 53 discriminator 1
	subl	%eax, %edx
	.loc 1 713 23 discriminator 1
	cmpl	%edx, -4(%rbp)
	jl	.L30
.LBE4:
.LBB5:
	.loc 1 725 23
	movq	-40(%rbp), %rax
	movl	(%rax), %edx
	.loc 1 725 36
	movq	-40(%rbp), %rax
	movl	4(%rax), %eax
	.loc 1 725 31
	imull	%eax, %edx
	.loc 1 725 52
	movq	-40(%rbp), %rax
	movl	(%rax), %eax
	.loc 1 725 60
	imull	-44(%rbp), %eax
	.loc 1 725 14
	subl	%eax, %edx
	movl	%edx, -8(%rbp)
	.loc 1 725 5
	jmp	.L31
.L33:
.LBB6:
	.loc 1 728 30
	movq	-40(%rbp), %rax
	movq	96(%rax), %rax
	.loc 1 728 38
	movl	-8(%rbp), %edx
	movslq	%edx, %rdx
	salq	$4, %rdx
	.loc 1 728 19
	addq	%rdx, %rax
	movq	%rax, -16(%rbp)
	.loc 1 729 20
	movq	-16(%rbp), %rax
	movl	$0, 4(%rax)
	movq	-16(%rbp), %rax
	movl	$7, 8(%rax)
	movq	-16(%rbp), %rax
	movl	$0, 12(%rax)
	.loc 1 730 17
	movq	-16(%rbp), %rax
	movb	$32, (%rax)
	.loc 1 732 16
	movq	-40(%rbp), %rax
	movq	128(%rax), %rax
	.loc 1 732 12
	testq	%rax, %rax
	je	.L32
	.loc 1 734 16
	movq	-40(%rbp), %rax
	movq	128(%rax), %r8
	.loc 1 734 72
	movq	-40(%rbp), %rax
	movl	(%rax), %edi
	.loc 1 734 13
	movl	-8(%rbp), %eax
	cltd
	idivl	%edi
	movl	%eax, %r9d
	.loc 1 734 56
	movq	-40(%rbp), %rax
	movl	(%rax), %ecx
	.loc 1 734 13
	movl	-8(%rbp), %eax
	cltd
	idivl	%ecx
	movl	%edx, %edi
	.loc 1 734 36
	movq	-40(%rbp), %rax
	movq	96(%rax), %rax
	.loc 1 734 44
	movl	-8(%rbp), %edx
	movslq	%edx, %rdx
	salq	$4, %rdx
	.loc 1 734 13
	leaq	(%rax,%rdx), %rsi
	movq	-40(%rbp), %rax
	movl	%r9d, %ecx
	movl	%edi, %edx
	movq	%rax, %rdi
	call	*%r8
.LVL9:
.L32:
.LBE6:
	.loc 1 726 41
	addl	$1, -8(%rbp)
.L31:
	.loc 1 726 17 discriminator 1
	movq	-40(%rbp), %rax
	movl	(%rax), %edx
	.loc 1 726 30 discriminator 1
	movq	-40(%rbp), %rax
	movl	4(%rax), %eax
	.loc 1 726 25 discriminator 1
	imull	%edx, %eax
	.loc 1 726 12 discriminator 1
	cmpl	%eax, -8(%rbp)
	jl	.L33
.LBE5:
	.loc 1 739 20
	movq	-40(%rbp), %rax
	movl	120(%rax), %eax
	.loc 1 739 8
	testl	%eax, %eax
	jle	.L25
	.loc 1 741 20
	movq	-40(%rbp), %rax
	movl	120(%rax), %eax
	.loc 1 741 23
	subl	-44(%rbp), %eax
	movl	%eax, %edx
	movq	-40(%rbp), %rax
	movl	%edx, 120(%rax)
	.loc 1 743 24
	movq	-40(%rbp), %rax
	movl	120(%rax), %eax
	.loc 1 743 12
	testl	%eax, %eax
	jns	.L34
	.loc 1 744 27
	movq	-40(%rbp), %rax
	movl	$0, 120(%rax)
.L34:
	.loc 1 746 16
	movq	-40(%rbp), %rax
	movq	136(%rax), %rax
	.loc 1 746 12
	testq	%rax, %rax
	je	.L25
	.loc 1 748 16
	movq	-40(%rbp), %rax
	movq	136(%rax), %rdx
	.loc 1 748 13
	movq	-40(%rbp), %rax
	leaq	116(%rax), %rcx
	movq	-40(%rbp), %rax
	movq	%rcx, %rsi
	movq	%rax, %rdi
	call	*%rdx
.LVL10:
	jmp	.L25
.L35:
	.loc 1 708 9
	nop
.L25:
	.loc 1 751 1
	leave
	.cfi_restore 6
	.cfi_def_cfa 7, 8
	ret
	.cfi_endproc
.LFE13:
	.size	vtconsole_scroll, .-vtconsole_scroll
	.globl	vtconsole_newline
	.type	vtconsole_newline, @function
vtconsole_newline:
.LFB14:
	.loc 1 755 1
	.cfi_startproc
	pushq	%rbp
	.cfi_def_cfa_offset 16
	.cfi_offset 6, -16
	movq	%rsp, %rbp
	.cfi_def_cfa_register 6
	subq	$16, %rsp
	movq	%rdi, -8(%rbp)
	.loc 1 756 19
	movq	-8(%rbp), %rax
	movl	$0, 116(%rax)
	.loc 1 757 16
	movq	-8(%rbp), %rax
	movl	120(%rax), %eax
	.loc 1 757 18
	leal	1(%rax), %edx
	movq	-8(%rbp), %rax
	movl	%edx, 120(%rax)
	.loc 1 759 20
	movq	-8(%rbp), %rax
	movl	120(%rax), %edx
	.loc 1 759 29
	movq	-8(%rbp), %rax
	movl	4(%rax), %eax
	.loc 1 759 8
	cmpl	%eax, %edx
	jne	.L37
	.loc 1 761 9
	movq	-8(%rbp), %rax
	movl	$1, %esi
	movq	%rax, %rdi
	movabsq	$vtconsole_scroll, %rax
	call	*%rax
.LVL11:
.L37:
	.loc 1 764 12
	movq	-8(%rbp), %rax
	movq	136(%rax), %rax
	.loc 1 764 8
	testq	%rax, %rax
	je	.L39
	.loc 1 766 12
	movq	-8(%rbp), %rax
	movq	136(%rax), %rdx
	.loc 1 766 9
	movq	-8(%rbp), %rax
	leaq	116(%rax), %rcx
	movq	-8(%rbp), %rax
	movq	%rcx, %rsi
	movq	%rax, %rdi
	call	*%rdx
.LVL12:
.L39:
	.loc 1 768 1
	nop
	leave
	.cfi_restore 6
	.cfi_def_cfa 7, 8
	ret
	.cfi_endproc
.LFE14:
	.size	vtconsole_newline, .-vtconsole_newline
	.globl	vtconsole_append
	.type	vtconsole_append, @function
vtconsole_append:
.LFB15:
	.loc 1 772 1
	.cfi_startproc
	pushq	%rbp
	.cfi_def_cfa_offset 16
	.cfi_offset 6, -16
	movq	%rsp, %rbp
	.cfi_def_cfa_register 6
	subq	$64, %rsp
	movq	%rdi, -56(%rbp)
	movl	%esi, %eax
	movb	%al, -60(%rbp)
	.loc 1 773 8
	cmpb	$10, -60(%rbp)
	jne	.L41
	.loc 1 775 9
	movq	-56(%rbp), %rax
	movq	%rax, %rdi
	movabsq	$vtconsole_newline, %rax
	call	*%rax
.LVL13:
	.loc 1 843 1
	jmp	.L53
.L41:
	.loc 1 777 13
	cmpb	$13, -60(%rbp)
	jne	.L43
	.loc 1 779 23
	movq	-56(%rbp), %rax
	movl	$0, 116(%rax)
	.loc 1 781 16
	movq	-56(%rbp), %rax
	movq	136(%rax), %rax
	.loc 1 781 12
	testq	%rax, %rax
	je	.L53
	.loc 1 783 16
	movq	-56(%rbp), %rax
	movq	136(%rax), %rdx
	.loc 1 783 13
	movq	-56(%rbp), %rax
	leaq	116(%rax), %rcx
	movq	-56(%rbp), %rax
	movq	%rcx, %rsi
	movq	%rax, %rdi
	call	*%rdx
.LVL14:
	.loc 1 843 1
	jmp	.L53
.L43:
	.loc 1 786 13
	cmpb	$9, -60(%rbp)
	jne	.L44
.LBB7:
	.loc 1 788 33
	movq	-56(%rbp), %rax
	movl	116(%rax), %edx
	.loc 1 788 36
	movl	%edx, %eax
	sarl	$31, %eax
	shrl	$29, %eax
	addl	%eax, %edx
	andl	$7, %edx
	subl	%eax, %edx
	.loc 1 788 13
	movl	$8, %eax
	subl	%edx, %eax
	movl	%eax, -36(%rbp)
	.loc 1 790 12
	movq	-56(%rbp), %rax
	movq	104(%rax), %rcx
	.loc 1 790 22
	movq	-56(%rbp), %rax
	movl	112(%rax), %edx
	.loc 1 790 34
	movl	%edx, %eax
	sarl	$31, %eax
	shrl	$25, %eax
	addl	%eax, %edx
	andl	$127, %edx
	subl	%eax, %edx
	movl	%edx, %eax
	cltq
	.loc 1 790 18
	salq	$2, %rax
	leaq	(%rcx,%rax), %rdx
	.loc 1 790 55
	movl	-36(%rbp), %eax
	movl	%eax, (%rdx)
	.loc 1 791 12
	movq	-56(%rbp), %rax
	movl	112(%rax), %eax
	.loc 1 791 23
	leal	1(%rax), %edx
	movq	-56(%rbp), %rax
	movl	%edx, 112(%rax)
.LBB8:
	.loc 1 793 18
	movl	$0, -4(%rbp)
	.loc 1 793 9
	jmp	.L45
.L46:
	.loc 1 795 13 discriminator 3
	movq	-56(%rbp), %rax
	movl	$32, %esi
	movq	%rax, %rdi
	movabsq	$vtconsole_append, %rax
	call	*%rax
.LVL15:
	.loc 1 793 33 discriminator 3
	addl	$1, -4(%rbp)
.L45:
	.loc 1 793 27 discriminator 1
	movl	-4(%rbp), %eax
	cmpl	-36(%rbp), %eax
	jl	.L46
.LBE8:
.LBE7:
	.loc 1 843 1
	jmp	.L53
.L44:
	.loc 1 798 13
	cmpb	$8, -60(%rbp)
	jne	.L47
.LBB9:
	.loc 1 800 24
	movq	-56(%rbp), %rax
	movl	116(%rax), %eax
	.loc 1 800 12
	testl	%eax, %eax
	jle	.L48
	.loc 1 802 24
	movq	-56(%rbp), %rax
	movl	116(%rax), %eax
	.loc 1 802 26
	leal	-1(%rax), %edx
	movq	-56(%rbp), %rax
	movl	%edx, 116(%rax)
	jmp	.L49
.L48:
	.loc 1 806 24
	movq	-56(%rbp), %rax
	movl	120(%rax), %eax
	.loc 1 806 26
	leal	-1(%rax), %edx
	movq	-56(%rbp), %rax
	movl	%edx, 120(%rax)
	.loc 1 807 32
	movq	-56(%rbp), %rax
	movl	(%rax), %eax
	.loc 1 807 40
	leal	-1(%rax), %edx
	.loc 1 807 27
	movq	-56(%rbp), %rax
	movl	%edx, 116(%rax)
.L49:
	.loc 1 810 16
	movq	-56(%rbp), %rax
	movq	136(%rax), %rax
	.loc 1 810 12
	testq	%rax, %rax
	je	.L50
	.loc 1 812 16
	movq	-56(%rbp), %rax
	movq	136(%rax), %rdx
	.loc 1 812 13
	movq	-56(%rbp), %rax
	leaq	116(%rax), %rcx
	movq	-56(%rbp), %rax
	movq	%rcx, %rsi
	movq	%rax, %rdi
	call	*%rdx
.LVL16:
.L50:
	.loc 1 815 21
	movq	-56(%rbp), %rax
	movl	(%rax), %edx
	.loc 1 815 42
	movq	-56(%rbp), %rax
	movl	120(%rax), %eax
	.loc 1 815 29
	imull	%eax, %edx
	.loc 1 815 59
	movq	-56(%rbp), %rax
	movl	116(%rax), %eax
	.loc 1 815 13
	addl	%edx, %eax
	movl	%eax, -20(%rbp)
	.loc 1 816 30
	movq	-56(%rbp), %rax
	movq	96(%rax), %rax
	.loc 1 816 38
	movl	-20(%rbp), %edx
	movslq	%edx, %rdx
	salq	$4, %rdx
	.loc 1 816 19
	addq	%rdx, %rax
	movq	%rax, -32(%rbp)
	.loc 1 817 20
	movq	-32(%rbp), %rax
	movl	$0, 4(%rax)
	movq	-32(%rbp), %rax
	movl	$7, 8(%rax)
	movq	-32(%rbp), %rax
	movl	$0, 12(%rax)
	.loc 1 818 17
	movq	-32(%rbp), %rax
	movb	$32, (%rax)
	.loc 1 819 12
	movq	-56(%rbp), %rax
	movq	128(%rax), %r8
	.loc 1 819 68
	movq	-56(%rbp), %rax
	movl	(%rax), %edi
	.loc 1 819 9
	movl	-20(%rbp), %eax
	cltd
	idivl	%edi
	movl	%eax, %r9d
	.loc 1 819 52
	movq	-56(%rbp), %rax
	movl	(%rax), %ecx
	.loc 1 819 9
	movl	-20(%rbp), %eax
	cltd
	idivl	%ecx
	movl	%edx, %edi
	.loc 1 819 32
	movq	-56(%rbp), %rax
	movq	96(%rax), %rax
	.loc 1 819 40
	movl	-20(%rbp), %edx
	movslq	%edx, %rdx
	salq	$4, %rdx
	.loc 1 819 9
	leaq	(%rax,%rdx), %rsi
	movq	-56(%rbp), %rax
	movl	%r9d, %ecx
	movl	%edi, %edx
	movq	%rax, %rdi
	call	*%r8
.LVL17:
.LBE9:
	.loc 1 843 1
	jmp	.L53
.L47:
.LBB10:
	.loc 1 823 24
	movq	-56(%rbp), %rax
	movl	116(%rax), %edx
	.loc 1 823 33
	movq	-56(%rbp), %rax
	movl	(%rax), %eax
	.loc 1 823 12
	cmpl	%eax, %edx
	jl	.L51
	.loc 1 824 13
	movq	-56(%rbp), %rax
	movq	%rax, %rdi
	movabsq	$vtconsole_newline, %rax
	call	*%rax
.LVL18:
.L51:
	.loc 1 827 17
	movq	-56(%rbp), %rax
	movq	96(%rax), %rcx
	.loc 1 827 37
	movq	-56(%rbp), %rax
	movl	116(%rax), %esi
	.loc 1 827 53
	movq	-56(%rbp), %rax
	movl	120(%rax), %edx
	.loc 1 827 61
	movq	-56(%rbp), %rax
	movl	(%rax), %eax
	.loc 1 827 56
	imull	%edx, %eax
	.loc 1 827 40
	addl	%esi, %eax
	cltq
	.loc 1 827 25
	salq	$4, %rax
	.loc 1 826 19
	addq	%rcx, %rax
	movq	%rax, -16(%rbp)
	.loc 1 828 17
	movq	-16(%rbp), %rax
	movzbl	-60(%rbp), %edx
	movb	%dl, (%rax)
	.loc 1 829 20
	movq	-16(%rbp), %rax
	movq	-56(%rbp), %rdx
	movq	8(%rdx), %rcx
	movq	%rcx, 4(%rax)
	movl	16(%rdx), %edx
	movl	%edx, 12(%rax)
	.loc 1 831 16
	movq	-56(%rbp), %rax
	movq	128(%rax), %rax
	.loc 1 831 12
	testq	%rax, %rax
	je	.L52
	.loc 1 833 16
	movq	-56(%rbp), %rax
	movq	128(%rax), %r8
	.loc 1 833 13
	movq	-56(%rbp), %rax
	movl	120(%rax), %ecx
	movq	-56(%rbp), %rax
	movl	116(%rax), %edx
	movq	-16(%rbp), %rsi
	movq	-56(%rbp), %rax
	movq	%rax, %rdi
	call	*%r8
.LVL19:
.L52:
	.loc 1 836 20
	movq	-56(%rbp), %rax
	movl	116(%rax), %eax
	.loc 1 836 22
	leal	1(%rax), %edx
	movq	-56(%rbp), %rax
	movl	%edx, 116(%rax)
	.loc 1 838 16
	movq	-56(%rbp), %rax
	movq	136(%rax), %rax
	.loc 1 838 12
	testq	%rax, %rax
	je	.L53
	.loc 1 840 16
	movq	-56(%rbp), %rax
	movq	136(%rax), %rdx
	.loc 1 840 13
	movq	-56(%rbp), %rax
	leaq	116(%rax), %rcx
	movq	-56(%rbp), %rax
	movq	%rcx, %rsi
	movq	%rax, %rdi
	call	*%rdx
.LVL20:
.L53:
.LBE10:
	.loc 1 843 1
	nop
	leave
	.cfi_restore 6
	.cfi_def_cfa 7, 8
	ret
	.cfi_endproc
.LFE15:
	.size	vtconsole_append, .-vtconsole_append
	.globl	vtconsole_csi_cuu
	.type	vtconsole_csi_cuu, @function
vtconsole_csi_cuu:
.LFB16:
	.loc 1 847 1
	.cfi_startproc
	pushq	%rbp
	.cfi_def_cfa_offset 16
	.cfi_offset 6, -16
	movq	%rsp, %rbp
	.cfi_def_cfa_register 6
	subq	$48, %rsp
	movq	%rdi, -24(%rbp)
	movq	%rsi, -32(%rbp)
	movl	%edx, -36(%rbp)
	.loc 1 848 8
	cmpl	$1, -36(%rbp)
	jne	.L55
	.loc 1 848 32 discriminator 1
	movq	-32(%rbp), %rax
	movl	4(%rax), %eax
	.loc 1 848 20 discriminator 1
	testl	%eax, %eax
	jne	.L55
.LBB11:
	.loc 1 850 13
	movq	-32(%rbp), %rax
	movl	(%rax), %eax
	movl	%eax, -4(%rbp)
	.loc 1 851 25
	movq	-24(%rbp), %rax
	movl	4(%rax), %eax
	leal	-1(%rax), %edx
	movq	-24(%rbp), %rax
	movl	120(%rax), %eax
	subl	-4(%rbp), %eax
	cmpl	%eax, %edx
	cmovle	%edx, %eax
	movl	$1, %edx
	testl	%eax, %eax
	cmovg	%eax, %edx
	.loc 1 851 23
	movq	-24(%rbp), %rax
	movl	%edx, 120(%rax)
.L55:
.LBE11:
	.loc 1 854 12
	movq	-24(%rbp), %rax
	movq	136(%rax), %rax
	.loc 1 854 8
	testq	%rax, %rax
	je	.L57
	.loc 1 856 12
	movq	-24(%rbp), %rax
	movq	136(%rax), %rdx
	.loc 1 856 9
	movq	-24(%rbp), %rax
	leaq	116(%rax), %rcx
	movq	-24(%rbp), %rax
	movq	%rcx, %rsi
	movq	%rax, %rdi
	call	*%rdx
.LVL21:
.L57:
	.loc 1 858 1
	nop
	leave
	.cfi_restore 6
	.cfi_def_cfa 7, 8
	ret
	.cfi_endproc
.LFE16:
	.size	vtconsole_csi_cuu, .-vtconsole_csi_cuu
	.globl	vtconsole_csi_cud
	.type	vtconsole_csi_cud, @function
vtconsole_csi_cud:
.LFB17:
	.loc 1 862 1
	.cfi_startproc
	pushq	%rbp
	.cfi_def_cfa_offset 16
	.cfi_offset 6, -16
	movq	%rsp, %rbp
	.cfi_def_cfa_register 6
	subq	$48, %rsp
	movq	%rdi, -24(%rbp)
	movq	%rsi, -32(%rbp)
	movl	%edx, -36(%rbp)
	.loc 1 863 8
	cmpl	$1, -36(%rbp)
	jne	.L59
	.loc 1 863 32 discriminator 1
	movq	-32(%rbp), %rax
	movl	4(%rax), %eax
	.loc 1 863 20 discriminator 1
	testl	%eax, %eax
	jne	.L59
.LBB12:
	.loc 1 865 13
	movq	-32(%rbp), %rax
	movl	(%rax), %eax
	movl	%eax, -4(%rbp)
	.loc 1 866 25
	movq	-24(%rbp), %rax
	movl	4(%rax), %eax
	leal	-1(%rax), %edx
	movq	-24(%rbp), %rax
	movl	120(%rax), %ecx
	movl	-4(%rbp), %eax
	addl	%ecx, %eax
	cmpl	%eax, %edx
	cmovle	%edx, %eax
	movl	$1, %edx
	testl	%eax, %eax
	cmovg	%eax, %edx
	.loc 1 866 23
	movq	-24(%rbp), %rax
	movl	%edx, 120(%rax)
.L59:
.LBE12:
	.loc 1 869 12
	movq	-24(%rbp), %rax
	movq	136(%rax), %rax
	.loc 1 869 8
	testq	%rax, %rax
	je	.L61
	.loc 1 871 12
	movq	-24(%rbp), %rax
	movq	136(%rax), %rdx
	.loc 1 871 9
	movq	-24(%rbp), %rax
	leaq	116(%rax), %rcx
	movq	-24(%rbp), %rax
	movq	%rcx, %rsi
	movq	%rax, %rdi
	call	*%rdx
.LVL22:
.L61:
	.loc 1 873 1
	nop
	leave
	.cfi_restore 6
	.cfi_def_cfa 7, 8
	ret
	.cfi_endproc
.LFE17:
	.size	vtconsole_csi_cud, .-vtconsole_csi_cud
	.globl	vtconsole_csi_cuf
	.type	vtconsole_csi_cuf, @function
vtconsole_csi_cuf:
.LFB18:
	.loc 1 877 1
	.cfi_startproc
	pushq	%rbp
	.cfi_def_cfa_offset 16
	.cfi_offset 6, -16
	movq	%rsp, %rbp
	.cfi_def_cfa_register 6
	subq	$48, %rsp
	movq	%rdi, -24(%rbp)
	movq	%rsi, -32(%rbp)
	movl	%edx, -36(%rbp)
	.loc 1 878 8
	cmpl	$1, -36(%rbp)
	jne	.L63
	.loc 1 878 32 discriminator 1
	movq	-32(%rbp), %rax
	movl	4(%rax), %eax
	.loc 1 878 20 discriminator 1
	testl	%eax, %eax
	jne	.L63
.LBB13:
	.loc 1 880 13
	movq	-32(%rbp), %rax
	movl	(%rax), %eax
	movl	%eax, -4(%rbp)
	.loc 1 881 25
	movq	-24(%rbp), %rax
	movl	(%rax), %eax
	leal	-1(%rax), %edx
	movq	-24(%rbp), %rax
	movl	116(%rax), %ecx
	movl	-4(%rbp), %eax
	addl	%ecx, %eax
	cmpl	%eax, %edx
	cmovle	%edx, %eax
	movl	$1, %edx
	testl	%eax, %eax
	cmovg	%eax, %edx
	.loc 1 881 23
	movq	-24(%rbp), %rax
	movl	%edx, 116(%rax)
.L63:
.LBE13:
	.loc 1 884 12
	movq	-24(%rbp), %rax
	movq	136(%rax), %rax
	.loc 1 884 8
	testq	%rax, %rax
	je	.L65
	.loc 1 886 12
	movq	-24(%rbp), %rax
	movq	136(%rax), %rdx
	.loc 1 886 9
	movq	-24(%rbp), %rax
	leaq	116(%rax), %rcx
	movq	-24(%rbp), %rax
	movq	%rcx, %rsi
	movq	%rax, %rdi
	call	*%rdx
.LVL23:
.L65:
	.loc 1 888 1
	nop
	leave
	.cfi_restore 6
	.cfi_def_cfa 7, 8
	ret
	.cfi_endproc
.LFE18:
	.size	vtconsole_csi_cuf, .-vtconsole_csi_cuf
	.globl	vtconsole_csi_cub
	.type	vtconsole_csi_cub, @function
vtconsole_csi_cub:
.LFB19:
	.loc 1 892 1
	.cfi_startproc
	pushq	%rbp
	.cfi_def_cfa_offset 16
	.cfi_offset 6, -16
	movq	%rsp, %rbp
	.cfi_def_cfa_register 6
	subq	$48, %rsp
	movq	%rdi, -24(%rbp)
	movq	%rsi, -32(%rbp)
	movl	%edx, -36(%rbp)
	.loc 1 893 8
	cmpl	$1, -36(%rbp)
	jne	.L67
	.loc 1 893 32 discriminator 1
	movq	-32(%rbp), %rax
	movl	4(%rax), %eax
	.loc 1 893 20 discriminator 1
	testl	%eax, %eax
	jne	.L67
.LBB14:
	.loc 1 895 13
	movq	-32(%rbp), %rax
	movl	(%rax), %eax
	movl	%eax, -4(%rbp)
	.loc 1 896 25
	movq	-24(%rbp), %rax
	movl	(%rax), %eax
	leal	-1(%rax), %edx
	movq	-24(%rbp), %rax
	movl	116(%rax), %eax
	subl	-4(%rbp), %eax
	cmpl	%eax, %edx
	cmovle	%edx, %eax
	movl	$1, %edx
	testl	%eax, %eax
	cmovg	%eax, %edx
	.loc 1 896 23
	movq	-24(%rbp), %rax
	movl	%edx, 116(%rax)
.L67:
.LBE14:
	.loc 1 899 12
	movq	-24(%rbp), %rax
	movq	136(%rax), %rax
	.loc 1 899 8
	testq	%rax, %rax
	je	.L69
	.loc 1 901 12
	movq	-24(%rbp), %rax
	movq	136(%rax), %rdx
	.loc 1 901 9
	movq	-24(%rbp), %rax
	leaq	116(%rax), %rcx
	movq	-24(%rbp), %rax
	movq	%rcx, %rsi
	movq	%rax, %rdi
	call	*%rdx
.LVL24:
.L69:
	.loc 1 903 1
	nop
	leave
	.cfi_restore 6
	.cfi_def_cfa 7, 8
	ret
	.cfi_endproc
.LFE19:
	.size	vtconsole_csi_cub, .-vtconsole_csi_cub
	.globl	vtconsole_csi_cnl
	.type	vtconsole_csi_cnl, @function
vtconsole_csi_cnl:
.LFB20:
	.loc 1 908 1
	.cfi_startproc
	pushq	%rbp
	.cfi_def_cfa_offset 16
	.cfi_offset 6, -16
	movq	%rsp, %rbp
	.cfi_def_cfa_register 6
	subq	$48, %rsp
	movq	%rdi, -24(%rbp)
	movq	%rsi, -32(%rbp)
	movl	%edx, -36(%rbp)
	.loc 1 909 8
	cmpl	$1, -36(%rbp)
	jne	.L71
	.loc 1 909 32 discriminator 1
	movq	-32(%rbp), %rax
	movl	4(%rax), %eax
	.loc 1 909 20 discriminator 1
	testl	%eax, %eax
	jne	.L71
.LBB15:
	.loc 1 911 13
	movq	-32(%rbp), %rax
	movl	(%rax), %eax
	movl	%eax, -4(%rbp)
	.loc 1 912 25
	movq	-24(%rbp), %rax
	movl	4(%rax), %eax
	leal	-1(%rax), %edx
	movq	-24(%rbp), %rax
	movl	120(%rax), %ecx
	movl	-4(%rbp), %eax
	addl	%ecx, %eax
	cmpl	%eax, %edx
	cmovle	%edx, %eax
	movl	$1, %edx
	testl	%eax, %eax
	cmovg	%eax, %edx
	.loc 1 912 23
	movq	-24(%rbp), %rax
	movl	%edx, 120(%rax)
	.loc 1 913 23
	movq	-24(%rbp), %rax
	movl	$0, 116(%rax)
.L71:
.LBE15:
	.loc 1 916 12
	movq	-24(%rbp), %rax
	movq	136(%rax), %rax
	.loc 1 916 8
	testq	%rax, %rax
	je	.L73
	.loc 1 918 12
	movq	-24(%rbp), %rax
	movq	136(%rax), %rdx
	.loc 1 918 9
	movq	-24(%rbp), %rax
	leaq	116(%rax), %rcx
	movq	-24(%rbp), %rax
	movq	%rcx, %rsi
	movq	%rax, %rdi
	call	*%rdx
.LVL25:
.L73:
	.loc 1 920 1
	nop
	leave
	.cfi_restore 6
	.cfi_def_cfa 7, 8
	ret
	.cfi_endproc
.LFE20:
	.size	vtconsole_csi_cnl, .-vtconsole_csi_cnl
	.globl	vtconsole_csi_cpl
	.type	vtconsole_csi_cpl, @function
vtconsole_csi_cpl:
.LFB21:
	.loc 1 925 1
	.cfi_startproc
	pushq	%rbp
	.cfi_def_cfa_offset 16
	.cfi_offset 6, -16
	movq	%rsp, %rbp
	.cfi_def_cfa_register 6
	subq	$48, %rsp
	movq	%rdi, -24(%rbp)
	movq	%rsi, -32(%rbp)
	movl	%edx, -36(%rbp)
	.loc 1 926 8
	cmpl	$1, -36(%rbp)
	jne	.L75
	.loc 1 926 32 discriminator 1
	movq	-32(%rbp), %rax
	movl	4(%rax), %eax
	.loc 1 926 20 discriminator 1
	testl	%eax, %eax
	jne	.L75
.LBB16:
	.loc 1 928 13
	movq	-32(%rbp), %rax
	movl	(%rax), %eax
	movl	%eax, -4(%rbp)
	.loc 1 929 25
	movq	-24(%rbp), %rax
	movl	4(%rax), %eax
	leal	-1(%rax), %edx
	movq	-24(%rbp), %rax
	movl	120(%rax), %eax
	subl	-4(%rbp), %eax
	cmpl	%eax, %edx
	cmovle	%edx, %eax
	movl	$1, %edx
	testl	%eax, %eax
	cmovg	%eax, %edx
	.loc 1 929 23
	movq	-24(%rbp), %rax
	movl	%edx, 120(%rax)
	.loc 1 930 23
	movq	-24(%rbp), %rax
	movl	$0, 116(%rax)
.L75:
.LBE16:
	.loc 1 933 12
	movq	-24(%rbp), %rax
	movq	136(%rax), %rax
	.loc 1 933 8
	testq	%rax, %rax
	je	.L77
	.loc 1 935 12
	movq	-24(%rbp), %rax
	movq	136(%rax), %rdx
	.loc 1 935 9
	movq	-24(%rbp), %rax
	leaq	116(%rax), %rcx
	movq	-24(%rbp), %rax
	movq	%rcx, %rsi
	movq	%rax, %rdi
	call	*%rdx
.LVL26:
.L77:
	.loc 1 937 1
	nop
	leave
	.cfi_restore 6
	.cfi_def_cfa 7, 8
	ret
	.cfi_endproc
.LFE21:
	.size	vtconsole_csi_cpl, .-vtconsole_csi_cpl
	.globl	vtconsole_csi_cha
	.type	vtconsole_csi_cha, @function
vtconsole_csi_cha:
.LFB22:
	.loc 1 941 1
	.cfi_startproc
	pushq	%rbp
	.cfi_def_cfa_offset 16
	.cfi_offset 6, -16
	movq	%rsp, %rbp
	.cfi_def_cfa_register 6
	subq	$48, %rsp
	movq	%rdi, -24(%rbp)
	movq	%rsi, -32(%rbp)
	movl	%edx, -36(%rbp)
	.loc 1 942 8
	cmpl	$1, -36(%rbp)
	jne	.L79
	.loc 1 942 32 discriminator 1
	movq	-32(%rbp), %rax
	movl	4(%rax), %eax
	.loc 1 942 20 discriminator 1
	testl	%eax, %eax
	jne	.L79
.LBB17:
	.loc 1 944 13
	movq	-32(%rbp), %rax
	movl	(%rax), %eax
	movl	%eax, -4(%rbp)
	.loc 1 945 25
	movq	-24(%rbp), %rax
	movl	4(%rax), %eax
	leal	-1(%rax), %edx
	movl	-4(%rbp), %eax
	cmpl	%eax, %edx
	cmovle	%edx, %eax
	movl	$1, %edx
	testl	%eax, %eax
	cmovg	%eax, %edx
	.loc 1 945 23
	movq	-24(%rbp), %rax
	movl	%edx, 120(%rax)
.L79:
.LBE17:
	.loc 1 948 12
	movq	-24(%rbp), %rax
	movq	136(%rax), %rax
	.loc 1 948 8
	testq	%rax, %rax
	je	.L81
	.loc 1 950 12
	movq	-24(%rbp), %rax
	movq	136(%rax), %rdx
	.loc 1 950 9
	movq	-24(%rbp), %rax
	leaq	116(%rax), %rcx
	movq	-24(%rbp), %rax
	movq	%rcx, %rsi
	movq	%rax, %rdi
	call	*%rdx
.LVL27:
.L81:
	.loc 1 952 1
	nop
	leave
	.cfi_restore 6
	.cfi_def_cfa 7, 8
	ret
	.cfi_endproc
.LFE22:
	.size	vtconsole_csi_cha, .-vtconsole_csi_cha
	.globl	vtconsole_csi_cup
	.type	vtconsole_csi_cup, @function
vtconsole_csi_cup:
.LFB23:
	.loc 1 956 1
	.cfi_startproc
	pushq	%rbp
	.cfi_def_cfa_offset 16
	.cfi_offset 6, -16
	movq	%rsp, %rbp
	.cfi_def_cfa_register 6
	subq	$32, %rsp
	movq	%rdi, -8(%rbp)
	movq	%rsi, -16(%rbp)
	movl	%edx, -20(%rbp)
	.loc 1 957 8
	cmpl	$1, -20(%rbp)
	jne	.L83
	.loc 1 957 31 discriminator 1
	movq	-16(%rbp), %rax
	movl	4(%rax), %eax
	.loc 1 957 20 discriminator 1
	testl	%eax, %eax
	je	.L83
	.loc 1 959 23
	movq	-8(%rbp), %rax
	movl	$0, 116(%rax)
	.loc 1 960 23
	movq	-8(%rbp), %rax
	movl	$0, 120(%rax)
	jmp	.L84
.L83:
	.loc 1 962 13
	cmpl	$2, -20(%rbp)
	jne	.L84
	.loc 1 964 21
	movq	-16(%rbp), %rax
	movl	4(%rax), %eax
	.loc 1 964 12
	testl	%eax, %eax
	je	.L85
	.loc 1 966 27
	movq	-8(%rbp), %rax
	movl	$0, 120(%rax)
	jmp	.L86
.L85:
	.loc 1 970 29
	movq	-16(%rbp), %rax
	movl	(%rax), %edx
	movq	-8(%rbp), %rax
	movl	4(%rax), %eax
	cmpl	%eax, %edx
	jge	.L87
	.loc 1 970 29 is_stmt 0 discriminator 1
	movq	-16(%rbp), %rax
	movl	(%rax), %eax
	subl	$1, %eax
	jmp	.L88
.L87:
	.loc 1 970 29 discriminator 2
	movq	-8(%rbp), %rax
	movl	4(%rax), %eax
	subl	$1, %eax
.L88:
	.loc 1 970 27 is_stmt 1 discriminator 4
	movq	-8(%rbp), %rdx
	movl	%eax, 120(%rdx)
.L86:
	.loc 1 973 18
	movq	-16(%rbp), %rax
	addq	$8, %rax
	.loc 1 973 21
	movl	4(%rax), %eax
	.loc 1 973 12
	testl	%eax, %eax
	je	.L89
	.loc 1 975 27
	movq	-8(%rbp), %rax
	movl	$0, 120(%rax)
	jmp	.L84
.L89:
	.loc 1 979 29
	movq	-16(%rbp), %rax
	addq	$8, %rax
	movl	(%rax), %edx
	movq	-8(%rbp), %rax
	movl	(%rax), %eax
	cmpl	%eax, %edx
	jge	.L90
	.loc 1 979 29 is_stmt 0 discriminator 1
	movq	-16(%rbp), %rax
	addq	$8, %rax
	movl	(%rax), %eax
	subl	$1, %eax
	jmp	.L91
.L90:
	.loc 1 979 29 discriminator 2
	movq	-8(%rbp), %rax
	movl	(%rax), %eax
	subl	$1, %eax
.L91:
	.loc 1 979 27 is_stmt 1 discriminator 4
	movq	-8(%rbp), %rdx
	movl	%eax, 116(%rdx)
.L84:
	.loc 1 983 12
	movq	-8(%rbp), %rax
	movq	136(%rax), %rax
	.loc 1 983 8
	testq	%rax, %rax
	je	.L93
	.loc 1 985 12
	movq	-8(%rbp), %rax
	movq	136(%rax), %rdx
	.loc 1 985 9
	movq	-8(%rbp), %rax
	leaq	116(%rax), %rcx
	movq	-8(%rbp), %rax
	movq	%rcx, %rsi
	movq	%rax, %rdi
	call	*%rdx
.LVL28:
.L93:
	.loc 1 987 1
	nop
	leave
	.cfi_restore 6
	.cfi_def_cfa 7, 8
	ret
	.cfi_endproc
.LFE23:
	.size	vtconsole_csi_cup, .-vtconsole_csi_cup
	.globl	vtconsole_csi_ed
	.type	vtconsole_csi_ed, @function
vtconsole_csi_ed:
.LFB24:
	.loc 1 991 1
	.cfi_startproc
	pushq	%rbp
	.cfi_def_cfa_offset 16
	.cfi_offset 6, -16
	movq	%rsp, %rbp
	.cfi_def_cfa_register 6
	subq	$48, %rsp
	movq	%rdi, -24(%rbp)
	movq	%rsi, -32(%rbp)
	movl	%edx, -36(%rbp)
	.loc 1 994 16
	movq	-24(%rbp), %rax
	movq	116(%rax), %rax
	movq	%rax, -12(%rbp)
	.loc 1 996 17
	movq	-32(%rbp), %rax
	movl	4(%rax), %eax
	.loc 1 996 8
	testl	%eax, %eax
	je	.L95
	.loc 1 998 65
	movq	-24(%rbp), %rax
	movl	4(%rax), %eax
	.loc 1 998 9
	leal	-1(%rax), %edi
	movq	-24(%rbp), %rax
	movl	(%rax), %ecx
	movl	-8(%rbp), %edx
	movl	-12(%rbp), %esi
	movq	-24(%rbp), %rax
	movl	%edi, %r8d
	movq	%rax, %rdi
	movabsq	$vtconsole_clear, %rax
	call	*%rax
.LVL29:
	.loc 1 1012 1
	jmp	.L99
.L95:
.LBB18:
	.loc 1 1002 13
	movq	-32(%rbp), %rax
	movl	(%rax), %eax
	movl	%eax, -4(%rbp)
	.loc 1 1004 12
	cmpl	$0, -4(%rbp)
	jne	.L97
	.loc 1 1006 32
	movq	-24(%rbp), %rax
	movl	4(%rax), %eax
	.loc 1 1005 13
	leal	-1(%rax), %edi
	movq	-24(%rbp), %rax
	movl	(%rax), %ecx
	movl	-8(%rbp), %edx
	movl	-12(%rbp), %esi
	movq	-24(%rbp), %rax
	movl	%edi, %r8d
	movq	%rax, %rdi
	movabsq	$vtconsole_clear, %rax
	call	*%rax
.LVL30:
.LBE18:
	.loc 1 1012 1
	jmp	.L99
.L97:
.LBB19:
	.loc 1 1007 17
	cmpl	$1, -4(%rbp)
	jne	.L98
	.loc 1 1008 13
	movl	-8(%rbp), %ecx
	movl	-12(%rbp), %edx
	movq	-24(%rbp), %rax
	movl	%ecx, %r8d
	movl	%edx, %ecx
	movl	$0, %edx
	movl	$0, %esi
	movq	%rax, %rdi
	movabsq	$vtconsole_clear, %rax
	call	*%rax
.LVL31:
.LBE19:
	.loc 1 1012 1
	jmp	.L99
.L98:
.LBB20:
	.loc 1 1009 17
	cmpl	$2, -4(%rbp)
	jne	.L99
	.loc 1 1010 55
	movq	-24(%rbp), %rax
	movl	4(%rax), %eax
	.loc 1 1010 13
	leal	-1(%rax), %ecx
	movq	-24(%rbp), %rax
	movl	(%rax), %edx
	movq	-24(%rbp), %rax
	movl	%ecx, %r8d
	movl	%edx, %ecx
	movl	$0, %edx
	movl	$0, %esi
	movq	%rax, %rdi
	movabsq	$vtconsole_clear, %rax
	call	*%rax
.LVL32:
.L99:
.LBE20:
	.loc 1 1012 1
	nop
	leave
	.cfi_restore 6
	.cfi_def_cfa 7, 8
	ret
	.cfi_endproc
.LFE24:
	.size	vtconsole_csi_ed, .-vtconsole_csi_ed
	.globl	vtconsole_csi_el
	.type	vtconsole_csi_el, @function
vtconsole_csi_el:
.LFB25:
	.loc 1 1016 1
	.cfi_startproc
	pushq	%rbp
	.cfi_def_cfa_offset 16
	.cfi_offset 6, -16
	movq	%rsp, %rbp
	.cfi_def_cfa_register 6
	subq	$48, %rsp
	movq	%rdi, -24(%rbp)
	movq	%rsi, -32(%rbp)
	movl	%edx, -36(%rbp)
	.loc 1 1019 16
	movq	-24(%rbp), %rax
	movq	116(%rax), %rax
	movq	%rax, -12(%rbp)
	.loc 1 1021 17
	movq	-32(%rbp), %rax
	movl	4(%rax), %eax
	.loc 1 1021 8
	testl	%eax, %eax
	je	.L101
	.loc 1 1023 9
	movl	-8(%rbp), %edi
	movq	-24(%rbp), %rax
	movl	(%rax), %ecx
	movl	-8(%rbp), %edx
	movl	-12(%rbp), %esi
	movq	-24(%rbp), %rax
	movl	%edi, %r8d
	movq	%rax, %rdi
	movabsq	$vtconsole_clear, %rax
	call	*%rax
.LVL33:
	.loc 1 1036 1
	jmp	.L105
.L101:
.LBB21:
	.loc 1 1027 13
	movq	-32(%rbp), %rax
	movl	(%rax), %eax
	movl	%eax, -4(%rbp)
	.loc 1 1029 12
	cmpl	$0, -4(%rbp)
	jne	.L103
	.loc 1 1030 13
	movl	-8(%rbp), %edi
	movq	-24(%rbp), %rax
	movl	(%rax), %ecx
	movl	-8(%rbp), %edx
	movl	-12(%rbp), %esi
	movq	-24(%rbp), %rax
	movl	%edi, %r8d
	movq	%rax, %rdi
	movabsq	$vtconsole_clear, %rax
	call	*%rax
.LVL34:
.LBE21:
	.loc 1 1036 1
	jmp	.L105
.L103:
.LBB22:
	.loc 1 1031 17
	cmpl	$1, -4(%rbp)
	jne	.L104
	.loc 1 1032 13
	movl	-8(%rbp), %esi
	movl	-12(%rbp), %ecx
	movl	-8(%rbp), %edx
	movq	-24(%rbp), %rax
	movl	%esi, %r8d
	movl	$0, %esi
	movq	%rax, %rdi
	movabsq	$vtconsole_clear, %rax
	call	*%rax
.LVL35:
.LBE22:
	.loc 1 1036 1
	jmp	.L105
.L104:
.LBB23:
	.loc 1 1033 17
	cmpl	$2, -4(%rbp)
	jne	.L105
	.loc 1 1034 13
	movl	-8(%rbp), %esi
	movq	-24(%rbp), %rax
	movl	(%rax), %ecx
	movl	-8(%rbp), %edx
	movq	-24(%rbp), %rax
	movl	%esi, %r8d
	movl	$0, %esi
	movq	%rax, %rdi
	movabsq	$vtconsole_clear, %rax
	call	*%rax
.LVL36:
.L105:
.LBE23:
	.loc 1 1036 1
	nop
	leave
	.cfi_restore 6
	.cfi_def_cfa 7, 8
	ret
	.cfi_endproc
.LFE25:
	.size	vtconsole_csi_el, .-vtconsole_csi_el
	.globl	vtconsole_csi_sgr
	.type	vtconsole_csi_sgr, @function
vtconsole_csi_sgr:
.LFB26:
	.loc 1 1040 1
	.cfi_startproc
	pushq	%rbp
	.cfi_def_cfa_offset 16
	.cfi_offset 6, -16
	movq	%rsp, %rbp
	.cfi_def_cfa_register 6
	subq	$56, %rsp
	movq	%rdi, -40(%rbp)
	movq	%rsi, -48(%rbp)
	movl	%edx, -52(%rbp)
.LBB24:
	.loc 1 1041 14
	movl	$0, -4(%rbp)
	.loc 1 1041 5
	jmp	.L107
.L113:
	.loc 1 1043 18
	movl	-4(%rbp), %eax
	cltq
	leaq	0(,%rax,8), %rdx
	movq	-48(%rbp), %rax
	addq	%rdx, %rax
	.loc 1 1043 21
	movl	4(%rax), %eax
	.loc 1 1043 12
	testl	%eax, %eax
	jne	.L108
	.loc 1 1043 36 discriminator 1
	movl	-4(%rbp), %eax
	cltq
	leaq	0(,%rax,8), %rdx
	movq	-48(%rbp), %rax
	addq	%rdx, %rax
	.loc 1 1043 39 discriminator 1
	movl	(%rax), %eax
	.loc 1 1043 28 discriminator 1
	testl	%eax, %eax
	jne	.L109
.L108:
.LBB25:
	.loc 1 1045 23
	movq	-40(%rbp), %rax
	movl	$0, 8(%rax)
	movq	-40(%rbp), %rax
	movl	$7, 12(%rax)
	movq	-40(%rbp), %rax
	movl	$0, 16(%rax)
.LBE25:
	.loc 1 1044 9
	jmp	.L110
.L109:
.LBB26:
	.loc 1 1049 29
	movl	-4(%rbp), %eax
	cltq
	leaq	0(,%rax,8), %rdx
	movq	-48(%rbp), %rax
	addq	%rdx, %rax
	.loc 1 1049 17
	movl	(%rax), %eax
	movl	%eax, -8(%rbp)
	.loc 1 1051 16
	cmpl	$1, -8(%rbp)
	jne	.L111
	.loc 1 1053 34
	movq	-40(%rbp), %rax
	movl	$1, 8(%rax)
	jmp	.L110
.L111:
	.loc 1 1055 21
	cmpl	$29, -8(%rbp)
	jle	.L112
	.loc 1 1055 33 discriminator 1
	cmpl	$37, -8(%rbp)
	jg	.L112
	.loc 1 1057 37
	movl	-8(%rbp), %eax
	subl	$30, %eax
	movl	%eax, %edx
	.loc 1 1057 30
	movq	-40(%rbp), %rax
	movl	%edx, 12(%rax)
	jmp	.L110
.L112:
	.loc 1 1059 21
	cmpl	$39, -8(%rbp)
	jle	.L110
	.loc 1 1059 33 discriminator 1
	cmpl	$47, -8(%rbp)
	jg	.L110
	.loc 1 1061 37
	movl	-8(%rbp), %eax
	subl	$40, %eax
	movl	%eax, %edx
	.loc 1 1061 30
	movq	-40(%rbp), %rax
	movl	%edx, 16(%rax)
.L110:
.LBE26:
	.loc 1 1041 33 discriminator 2
	addl	$1, -4(%rbp)
.L107:
	.loc 1 1041 23 discriminator 1
	movl	-4(%rbp), %eax
	cmpl	-52(%rbp), %eax
	jl	.L113
.LBE24:
	.loc 1 1065 1
	nop
	nop
	leave
	.cfi_restore 6
	.cfi_def_cfa 7, 8
	ret
	.cfi_endproc
.LFE26:
	.size	vtconsole_csi_sgr, .-vtconsole_csi_sgr
	.globl	vtconsole_csi_l
	.type	vtconsole_csi_l, @function
vtconsole_csi_l:
.LFB27:
	.loc 1 1068 1
	.cfi_startproc
	pushq	%rbp
	.cfi_def_cfa_offset 16
	.cfi_offset 6, -16
	movq	%rsp, %rbp
	.cfi_def_cfa_register 6
	subq	$32, %rsp
	movq	%rdi, -8(%rbp)
	movq	%rsi, -16(%rbp)
	movl	%edx, -20(%rbp)
	.loc 1 1069 8
	cmpl	$1, -20(%rbp)
	jne	.L119
	.loc 1 1073 17
	movq	-16(%rbp), %rax
	movl	4(%rax), %eax
	.loc 1 1073 8
	testl	%eax, %eax
	jne	.L120
	.loc 1 1073 35 discriminator 1
	movq	-16(%rbp), %rax
	movl	(%rax), %eax
	.loc 1 1073 24 discriminator 1
	cmpl	$25, %eax
	jne	.L120
	.loc 1 1078 5
	movl	$0, %eax
	movabsq	$vga_disable_cursor, %rdx
	call	*%rdx
.LVL37:
	jmp	.L114
.L119:
	.loc 1 1071 9
	nop
	jmp	.L114
.L120:
	.loc 1 1075 9
	nop
.L114:
	.loc 1 1079 1
	leave
	.cfi_restore 6
	.cfi_def_cfa 7, 8
	ret
	.cfi_endproc
.LFE27:
	.size	vtconsole_csi_l, .-vtconsole_csi_l
	.globl	vtconsole_csi_h
	.type	vtconsole_csi_h, @function
vtconsole_csi_h:
.LFB28:
	.loc 1 1082 1
	.cfi_startproc
	pushq	%rbp
	.cfi_def_cfa_offset 16
	.cfi_offset 6, -16
	movq	%rsp, %rbp
	.cfi_def_cfa_register 6
	subq	$32, %rsp
	movq	%rdi, -8(%rbp)
	movq	%rsi, -16(%rbp)
	movl	%edx, -20(%rbp)
	.loc 1 1083 8
	cmpl	$1, -20(%rbp)
	jne	.L126
	.loc 1 1088 17
	movq	-16(%rbp), %rax
	movl	4(%rax), %eax
	.loc 1 1088 8
	testl	%eax, %eax
	jne	.L127
	.loc 1 1088 35 discriminator 1
	movq	-16(%rbp), %rax
	movl	(%rax), %eax
	.loc 1 1088 24 discriminator 1
	cmpl	$25, %eax
	jne	.L127
	.loc 1 1093 5
	movl	$0, %eax
	movabsq	$vga_enable_cursor, %rdx
	call	*%rdx
.LVL38:
	jmp	.L121
.L126:
	.loc 1 1085 9
	nop
	jmp	.L121
.L127:
	.loc 1 1090 9
	nop
.L121:
	.loc 1 1094 1
	leave
	.cfi_restore 6
	.cfi_def_cfa 7, 8
	ret
	.cfi_endproc
.LFE28:
	.size	vtconsole_csi_h, .-vtconsole_csi_h
	.globl	vtconsole_process
	.type	vtconsole_process, @function
vtconsole_process:
.LFB29:
	.loc 1 1099 1
	.cfi_startproc
	pushq	%rbp
	.cfi_def_cfa_offset 16
	.cfi_offset 6, -16
	movq	%rsp, %rbp
	.cfi_def_cfa_register 6
	subq	$32, %rsp
	movq	%rdi, -24(%rbp)
	movl	%esi, %eax
	movb	%al, -28(%rbp)
	.loc 1 1100 22
	movq	-24(%rbp), %rax
	addq	$20, %rax
	movq	%rax, -8(%rbp)
	.loc 1 1102 19
	movq	-8(%rbp), %rax
	movl	(%rax), %eax
	.loc 1 1102 5
	cmpl	$2, %eax
	je	.L129
	cmpl	$2, %eax
	ja	.L160
	testl	%eax, %eax
	je	.L131
	cmpl	$1, %eax
	je	.L132
	.loc 1 1158 9
	jmp	.L160
.L131:
	.loc 1 1105 12
	cmpb	$27, -28(%rbp)
	jne	.L133
	.loc 1 1107 27
	movq	-8(%rbp), %rax
	movl	$1, (%rax)
	.loc 1 1109 27
	movq	-8(%rbp), %rax
	movl	$0, 68(%rax)
	.loc 1 1111 33
	movq	-8(%rbp), %rax
	movl	68(%rax), %edx
	.loc 1 1111 48
	movq	-8(%rbp), %rax
	movslq	%edx, %rdx
	movl	$0, 4(%rax,%rdx,8)
	.loc 1 1112 33
	movq	-8(%rbp), %rax
	movl	68(%rax), %edx
	.loc 1 1112 48
	movq	-8(%rbp), %rax
	movslq	%edx, %rdx
	movl	$1, 8(%rax,%rdx,8)
	.loc 1 1119 9
	jmp	.L135
.L133:
	.loc 1 1116 27
	movq	-8(%rbp), %rax
	movl	$0, (%rax)
	.loc 1 1117 13
	movsbl	-28(%rbp), %edx
	movq	-24(%rbp), %rax
	movl	%edx, %esi
	movq	%rax, %rdi
	movabsq	$vtconsole_append, %rax
	call	*%rax
.LVL39:
	.loc 1 1119 9
	jmp	.L135
.L132:
	.loc 1 1122 12
	cmpb	$91, -28(%rbp)
	jne	.L136
	.loc 1 1124 27
	movq	-8(%rbp), %rax
	movl	$2, (%rax)
	.loc 1 1131 9
	jmp	.L135
.L136:
	.loc 1 1128 27
	movq	-8(%rbp), %rax
	movl	$0, (%rax)
	.loc 1 1129 13
	movsbl	-28(%rbp), %edx
	movq	-24(%rbp), %rax
	movl	%edx, %esi
	movq	%rax, %rdi
	movabsq	$vtconsole_append, %rax
	call	*%rax
.LVL40:
	.loc 1 1131 9
	jmp	.L135
.L129:
	.loc 1 1133 12
	cmpb	$47, -28(%rbp)
	jle	.L138
	.loc 1 1133 22 discriminator 1
	cmpb	$57, -28(%rbp)
	jg	.L138
	.loc 1 1135 33
	movq	-8(%rbp), %rax
	movl	68(%rax), %edx
	.loc 1 1135 41
	movq	-8(%rbp), %rax
	movslq	%edx, %rdx
	movl	4(%rax,%rdx,8), %edx
	.loc 1 1135 33
	movq	-8(%rbp), %rax
	movl	68(%rax), %ecx
	.loc 1 1135 48
	movl	%edx, %eax
	sall	$2, %eax
	addl	%edx, %eax
	addl	%eax, %eax
	movl	%eax, %esi
	movq	-8(%rbp), %rax
	movslq	%ecx, %rdx
	movl	%esi, 4(%rax,%rdx,8)
	.loc 1 1136 33
	movq	-8(%rbp), %rax
	movl	68(%rax), %edx
	.loc 1 1136 41
	movq	-8(%rbp), %rax
	movslq	%edx, %rdx
	movl	4(%rax,%rdx,8), %ecx
	.loc 1 1136 54
	movsbl	-28(%rbp), %eax
	leal	-48(%rax), %esi
	.loc 1 1136 33
	movq	-8(%rbp), %rax
	movl	68(%rax), %edx
	.loc 1 1136 48
	addl	%esi, %ecx
	movq	-8(%rbp), %rax
	movslq	%edx, %rdx
	movl	%ecx, 4(%rax,%rdx,8)
	.loc 1 1137 33
	movq	-8(%rbp), %rax
	movl	68(%rax), %edx
	.loc 1 1137 48
	movq	-8(%rbp), %rax
	movslq	%edx, %rdx
	movl	$0, 8(%rax,%rdx,8)
	.loc 1 1156 9
	jmp	.L135
.L138:
	.loc 1 1139 17
	cmpb	$63, -28(%rbp)
	je	.L161
	.loc 1 1146 24
	movq	-8(%rbp), %rax
	movl	68(%rax), %eax
	.loc 1 1146 16
	cmpl	$7, %eax
	jg	.L141
	.loc 1 1148 23
	movq	-8(%rbp), %rax
	movl	68(%rax), %eax
	.loc 1 1148 30
	leal	1(%rax), %edx
	movq	-8(%rbp), %rax
	movl	%edx, 68(%rax)
.L141:
	.loc 1 1151 33
	movq	-8(%rbp), %rax
	movl	68(%rax), %edx
	.loc 1 1151 48
	movq	-8(%rbp), %rax
	movslq	%edx, %rdx
	movl	$0, 4(%rax,%rdx,8)
	.loc 1 1152 33
	movq	-8(%rbp), %rax
	movl	68(%rax), %edx
	.loc 1 1152 48
	movq	-8(%rbp), %rax
	movslq	%edx, %rdx
	movl	$1, 8(%rax,%rdx,8)
	.loc 1 1154 27
	movq	-8(%rbp), %rax
	movl	$3, (%rax)
	.loc 1 1156 9
	jmp	.L135
.L160:
	.loc 1 1158 9
	nop
	jmp	.L135
.L161:
	.loc 1 1142 13
	nop
.L135:
	.loc 1 1161 15
	movq	-8(%rbp), %rax
	movl	(%rax), %eax
	.loc 1 1161 8
	cmpl	$3, %eax
	jne	.L162
	.loc 1 1163 12
	cmpb	$59, -28(%rbp)
	jne	.L143
	.loc 1 1165 27
	movq	-8(%rbp), %rax
	movl	$2, (%rax)
	.loc 1 1230 1
	jmp	.L162
.L143:
	.loc 1 1169 13
	movsbl	-28(%rbp), %eax
	subl	$65, %eax
	cmpl	$44, %eax
	ja	.L144
	movl	%eax, %eax
	leaq	0(,%rax,8), %rdx
	movabsq	$.L146, %rax
	addq	%rdx, %rax
	movq	(%rax), %rax
	jmp	*%rax
	.section	.rodata
	.align 8
	.align 4
.L146:
	.quad	.L159
	.quad	.L158
	.quad	.L157
	.quad	.L156
	.quad	.L155
	.quad	.L154
	.quad	.L153
	.quad	.L152
	.quad	.L144
	.quad	.L151
	.quad	.L150
	.quad	.L144
	.quad	.L144
	.quad	.L144
	.quad	.L144
	.quad	.L144
	.quad	.L144
	.quad	.L144
	.quad	.L144
	.quad	.L144
	.quad	.L144
	.quad	.L144
	.quad	.L144
	.quad	.L144
	.quad	.L144
	.quad	.L144
	.quad	.L144
	.quad	.L144
	.quad	.L144
	.quad	.L144
	.quad	.L144
	.quad	.L144
	.quad	.L144
	.quad	.L144
	.quad	.L144
	.quad	.L144
	.quad	.L144
	.quad	.L144
	.quad	.L144
	.quad	.L148
	.quad	.L144
	.quad	.L144
	.quad	.L144
	.quad	.L147
	.quad	.L145
	.text
.L159:
	.loc 1 1173 17
	movq	-8(%rbp), %rax
	movl	68(%rax), %edx
	.loc 1 1173 46
	movq	-8(%rbp), %rax
	leaq	4(%rax), %rcx
	.loc 1 1173 17
	movq	-24(%rbp), %rax
	movq	%rcx, %rsi
	movq	%rax, %rdi
	movabsq	$vtconsole_csi_cuu, %rax
	call	*%rax
.LVL41:
	.loc 1 1174 17
	jmp	.L144
.L158:
	.loc 1 1177 17
	movq	-8(%rbp), %rax
	movl	68(%rax), %edx
	.loc 1 1177 46
	movq	-8(%rbp), %rax
	leaq	4(%rax), %rcx
	.loc 1 1177 17
	movq	-24(%rbp), %rax
	movq	%rcx, %rsi
	movq	%rax, %rdi
	movabsq	$vtconsole_csi_cub, %rax
	call	*%rax
.LVL42:
	.loc 1 1178 17
	jmp	.L144
.L157:
	.loc 1 1181 17
	movq	-8(%rbp), %rax
	movl	68(%rax), %edx
	.loc 1 1181 46
	movq	-8(%rbp), %rax
	leaq	4(%rax), %rcx
	.loc 1 1181 17
	movq	-24(%rbp), %rax
	movq	%rcx, %rsi
	movq	%rax, %rdi
	movabsq	$vtconsole_csi_cuf, %rax
	call	*%rax
.LVL43:
	.loc 1 1182 17
	jmp	.L144
.L156:
	.loc 1 1185 17
	movq	-8(%rbp), %rax
	movl	68(%rax), %edx
	.loc 1 1185 46
	movq	-8(%rbp), %rax
	leaq	4(%rax), %rcx
	.loc 1 1185 17
	movq	-24(%rbp), %rax
	movq	%rcx, %rsi
	movq	%rax, %rdi
	movabsq	$vtconsole_csi_cud, %rax
	call	*%rax
.LVL44:
	.loc 1 1186 17
	jmp	.L144
.L155:
	.loc 1 1190 17
	movq	-8(%rbp), %rax
	movl	68(%rax), %edx
	.loc 1 1190 46
	movq	-8(%rbp), %rax
	leaq	4(%rax), %rcx
	.loc 1 1190 17
	movq	-24(%rbp), %rax
	movq	%rcx, %rsi
	movq	%rax, %rdi
	movabsq	$vtconsole_csi_cnl, %rax
	call	*%rax
.LVL45:
	.loc 1 1191 17
	jmp	.L144
.L154:
	.loc 1 1194 17
	movq	-8(%rbp), %rax
	movl	68(%rax), %edx
	.loc 1 1194 46
	movq	-8(%rbp), %rax
	leaq	4(%rax), %rcx
	.loc 1 1194 17
	movq	-24(%rbp), %rax
	movq	%rcx, %rsi
	movq	%rax, %rdi
	movabsq	$vtconsole_csi_cpl, %rax
	call	*%rax
.LVL46:
	.loc 1 1195 17
	jmp	.L144
.L153:
	.loc 1 1198 17
	movq	-8(%rbp), %rax
	movl	68(%rax), %edx
	.loc 1 1198 46
	movq	-8(%rbp), %rax
	leaq	4(%rax), %rcx
	.loc 1 1198 17
	movq	-24(%rbp), %rax
	movq	%rcx, %rsi
	movq	%rax, %rdi
	movabsq	$vtconsole_csi_cha, %rax
	call	*%rax
.LVL47:
	.loc 1 1199 17
	jmp	.L144
.L152:
	.loc 1 1205 17
	movq	-8(%rbp), %rax
	movl	68(%rax), %edx
	.loc 1 1205 46
	movq	-8(%rbp), %rax
	leaq	4(%rax), %rcx
	.loc 1 1205 17
	movq	-24(%rbp), %rax
	movq	%rcx, %rsi
	movq	%rax, %rdi
	movabsq	$vtconsole_csi_cup, %rax
	call	*%rax
.LVL48:
	.loc 1 1206 17
	jmp	.L144
.L151:
	.loc 1 1209 17
	movq	-8(%rbp), %rax
	movl	68(%rax), %edx
	.loc 1 1209 45
	movq	-8(%rbp), %rax
	leaq	4(%rax), %rcx
	.loc 1 1209 17
	movq	-24(%rbp), %rax
	movq	%rcx, %rsi
	movq	%rax, %rdi
	movabsq	$vtconsole_csi_ed, %rax
	call	*%rax
.LVL49:
	.loc 1 1210 17
	jmp	.L144
.L150:
	.loc 1 1213 17
	movq	-8(%rbp), %rax
	movl	68(%rax), %edx
	.loc 1 1213 45
	movq	-8(%rbp), %rax
	leaq	4(%rax), %rcx
	.loc 1 1213 17
	movq	-24(%rbp), %rax
	movq	%rcx, %rsi
	movq	%rax, %rdi
	movabsq	$vtconsole_csi_el, %rax
	call	*%rax
.LVL50:
	.loc 1 1214 17
	jmp	.L144
.L145:
	.loc 1 1217 17
	movq	-8(%rbp), %rax
	movl	68(%rax), %edx
	.loc 1 1217 46
	movq	-8(%rbp), %rax
	leaq	4(%rax), %rcx
	.loc 1 1217 17
	movq	-24(%rbp), %rax
	movq	%rcx, %rsi
	movq	%rax, %rdi
	movabsq	$vtconsole_csi_sgr, %rax
	call	*%rax
.LVL51:
	.loc 1 1218 17
	jmp	.L144
.L147:
	.loc 1 1220 17
	movq	-8(%rbp), %rax
	movl	68(%rax), %edx
	.loc 1 1220 44
	movq	-8(%rbp), %rax
	leaq	4(%rax), %rcx
	.loc 1 1220 17
	movq	-24(%rbp), %rax
	movq	%rcx, %rsi
	movq	%rax, %rdi
	movabsq	$vtconsole_csi_l, %rax
	call	*%rax
.LVL52:
	.loc 1 1221 17
	jmp	.L144
.L148:
	.loc 1 1223 17
	movq	-8(%rbp), %rax
	movl	68(%rax), %edx
	.loc 1 1223 44
	movq	-8(%rbp), %rax
	leaq	4(%rax), %rcx
	.loc 1 1223 17
	movq	-24(%rbp), %rax
	movq	%rcx, %rsi
	movq	%rax, %rdi
	movabsq	$vtconsole_csi_h, %rax
	call	*%rax
.LVL53:
	.loc 1 1224 17
	nop
.L144:
	.loc 1 1227 27
	movq	-8(%rbp), %rax
	movl	$0, (%rax)
.L162:
	.loc 1 1230 1
	nop
	leave
	.cfi_restore 6
	.cfi_def_cfa 7, 8
	ret
	.cfi_endproc
.LFE29:
	.size	vtconsole_process, .-vtconsole_process
	.globl	vtconsole_putchar
	.type	vtconsole_putchar, @function
vtconsole_putchar:
.LFB30:
	.loc 1 1233 50
	.cfi_startproc
	pushq	%rbp
	.cfi_def_cfa_offset 16
	.cfi_offset 6, -16
	movq	%rsp, %rbp
	.cfi_def_cfa_register 6
	subq	$16, %rsp
	movq	%rdi, -8(%rbp)
	movl	%esi, %eax
	movb	%al, -12(%rbp)
	.loc 1 1233 52
	movsbl	-12(%rbp), %edx
	movq	-8(%rbp), %rax
	movl	%edx, %esi
	movq	%rax, %rdi
	movabsq	$vtconsole_process, %rax
	call	*%rax
.LVL54:
	.loc 1 1233 79
	nop
	leave
	.cfi_restore 6
	.cfi_def_cfa 7, 8
	ret
	.cfi_endproc
.LFE30:
	.size	vtconsole_putchar, .-vtconsole_putchar
	.globl	vtconsole_write
	.type	vtconsole_write, @function
vtconsole_write:
.LFB31:
	.loc 1 1237 1
	.cfi_startproc
	pushq	%rbp
	.cfi_def_cfa_offset 16
	.cfi_offset 6, -16
	movq	%rsp, %rbp
	.cfi_def_cfa_register 6
	subq	$48, %rsp
	movq	%rdi, -24(%rbp)
	movq	%rsi, -32(%rbp)
	movl	%edx, -36(%rbp)
.LBB27:
	.loc 1 1239 19
	movl	$0, -4(%rbp)
	.loc 1 1239 5
	jmp	.L165
.L170:
.LBB28:
	.loc 1 1242 18
	movq	-24(%rbp), %rax
	addq	$144, %rax
	movq	%rax, -16(%rbp)
	.loc 1 1245 19
	movl	-4(%rbp), %edx
	movq	-32(%rbp), %rax
	addq	%rdx, %rax
	movzbl	(%rax), %eax
	.loc 1 1245 12
	cmpb	$8, %al
	jne	.L166
	.loc 1 1245 68 discriminator 1
	movq	-16(%rbp), %rax
	movq	16(%rax), %rax
	.loc 1 1245 57 discriminator 1
	movq	-16(%rbp), %rdx
	movzbl	56(%rdx,%rax), %eax
	.loc 1 1245 31 discriminator 1
	cmpb	$9, %al
	jne	.L166
.LBB29:
	.loc 1 1249 22
	movl	$0, -8(%rbp)
	.loc 1 1249 13
	jmp	.L167
.L168:
	.loc 1 1251 46 discriminator 3
	movl	-4(%rbp), %edx
	movq	-32(%rbp), %rax
	addq	%rdx, %rax
	movzbl	(%rax), %eax
	.loc 1 1251 17 discriminator 3
	movsbl	%al, %edx
	movq	-24(%rbp), %rax
	movl	%edx, %esi
	movq	%rax, %rdi
	movabsq	$vtconsole_process, %rax
	call	*%rax
.LVL55:
	.loc 1 1249 87 discriminator 3
	addl	$1, -8(%rbp)
.L167:
	.loc 1 1249 36 discriminator 1
	movq	-24(%rbp), %rax
	movq	104(%rax), %rcx
	.loc 1 1249 47 discriminator 1
	movq	-24(%rbp), %rax
	movl	112(%rax), %eax
	.loc 1 1249 59 discriminator 1
	leal	-1(%rax), %edx
	.loc 1 1249 64 discriminator 1
	movl	%edx, %eax
	sarl	$31, %eax
	shrl	$25, %eax
	addl	%eax, %edx
	andl	$127, %edx
	subl	%eax, %edx
	movl	%edx, %eax
	cltq
	.loc 1 1249 42 discriminator 1
	salq	$2, %rax
	addq	%rcx, %rax
	movl	(%rax), %eax
	.loc 1 1249 31 discriminator 1
	cmpl	%eax, -8(%rbp)
	jl	.L168
.LBE29:
	.loc 1 1253 16
	movq	-24(%rbp), %rax
	movl	112(%rax), %eax
	.loc 1 1253 27
	leal	-1(%rax), %edx
	movq	-24(%rbp), %rax
	movl	%edx, 112(%rax)
	jmp	.L169
.L166:
	.loc 1 1257 42
	movl	-4(%rbp), %edx
	movq	-32(%rbp), %rax
	addq	%rdx, %rax
	movzbl	(%rax), %eax
	.loc 1 1257 13
	movsbl	%al, %edx
	movq	-24(%rbp), %rax
	movl	%edx, %esi
	movq	%rax, %rdi
	movabsq	$vtconsole_process, %rax
	call	*%rax
.LVL56:
.L169:
.LBE28:
	.loc 1 1239 37 discriminator 2
	addl	$1, -4(%rbp)
.L165:
	.loc 1 1239 28 discriminator 1
	movl	-4(%rbp), %eax
	cmpl	-36(%rbp), %eax
	jb	.L170
.LBE27:
	.loc 1 1260 1
	nop
	nop
	leave
	.cfi_restore 6
	.cfi_def_cfa 7, 8
	ret
	.cfi_endproc
.LFE31:
	.size	vtconsole_write, .-vtconsole_write
	.globl	vtconsole_redraw
	.type	vtconsole_redraw, @function
vtconsole_redraw:
.LFB32:
	.loc 1 1264 1
	.cfi_startproc
	pushq	%rbp
	.cfi_def_cfa_offset 16
	.cfi_offset 6, -16
	movq	%rsp, %rbp
	.cfi_def_cfa_register 6
	subq	$32, %rsp
	movq	%rdi, -24(%rbp)
.LBB30:
	.loc 1 1265 14
	movl	$0, -4(%rbp)
	.loc 1 1265 5
	jmp	.L172
.L174:
	.loc 1 1267 16
	movq	-24(%rbp), %rax
	movq	128(%rax), %rax
	.loc 1 1267 12
	testq	%rax, %rax
	je	.L173
	.loc 1 1269 16
	movq	-24(%rbp), %rax
	movq	128(%rax), %r8
	.loc 1 1269 72
	movq	-24(%rbp), %rax
	movl	(%rax), %ecx
	.loc 1 1269 13
	movl	-4(%rbp), %eax
	cltd
	idivl	%ecx
	movl	%eax, %r9d
	.loc 1 1269 56
	movq	-24(%rbp), %rax
	movl	(%rax), %ecx
	.loc 1 1269 13
	movl	-4(%rbp), %eax
	cltd
	idivl	%ecx
	movl	%edx, %edi
	.loc 1 1269 36
	movq	-24(%rbp), %rax
	movq	96(%rax), %rax
	.loc 1 1269 44
	movl	-4(%rbp), %edx
	movslq	%edx, %rdx
	salq	$4, %rdx
	.loc 1 1269 13
	leaq	(%rax,%rdx), %rsi
	movq	-24(%rbp), %rax
	movl	%r9d, %ecx
	movl	%edi, %edx
	movq	%rax, %rdi
	call	*%r8
.LVL57:
.L173:
	.loc 1 1265 54 discriminator 2
	addl	$1, -4(%rbp)
.L172:
	.loc 1 1265 29 discriminator 1
	movq	-24(%rbp), %rax
	movl	(%rax), %edx
	.loc 1 1265 42 discriminator 1
	movq	-24(%rbp), %rax
	movl	4(%rax), %eax
	.loc 1 1265 37 discriminator 1
	imull	%edx, %eax
	.loc 1 1265 23 discriminator 1
	cmpl	%eax, -4(%rbp)
	jl	.L174
.LBE30:
	.loc 1 1272 1
	nop
	nop
	leave
	.cfi_restore 6
	.cfi_def_cfa 7, 8
	ret
	.cfi_endproc
.LFE32:
	.size	vtconsole_redraw, .-vtconsole_redraw
	.globl	vga_cell
	.type	vga_cell, @function
vga_cell:
.LFB33:
	.loc 1 1280 1
	.cfi_startproc
	pushq	%rbp
	.cfi_def_cfa_offset 16
	.cfi_offset 6, -16
	movq	%rsp, %rbp
	.cfi_def_cfa_register 6
	subq	$16, %rsp
	movl	%edi, -4(%rbp)
	movl	%esi, -8(%rbp)
	movl	%edx, %eax
	movw	%ax, -12(%rbp)
	.loc 1 1281 8
	cmpl	$79, -4(%rbp)
	ja	.L177
	.loc 1 1283 12
	cmpl	$79, -8(%rbp)
	ja	.L177
	.loc 1 1285 13
	movzwl	-12(%rbp), %edx
	movl	-4(%rbp), %ecx
	movl	-8(%rbp), %eax
	movq	%rcx, %rsi
	movq	%rax, %rdi
	movabsq	$vga_write_char_at, %rax
	call	*%rax
.LVL58:
.L177:
	.loc 1 1288 1
	nop
	leave
	.cfi_restore 6
	.cfi_def_cfa 7, 8
	ret
	.cfi_endproc
.LFE33:
	.size	vga_cell, .-vga_cell
	.data
	.align 8
	.type	colors, @object
	.size	colors, 8
colors:
	.string	""
	.ascii	"\004\002\006\001\005\003\007"
	.align 8
	.type	brightcolors, @object
	.size	brightcolors, 8
brightcolors:
	.ascii	"\b\f\n\016\t\r\013\017"
	.local	active_vt
	.comm	active_vt,8,8
	.text
	.globl	paint_callback
	.type	paint_callback, @function
paint_callback:
.LFB34:
	.loc 1 1316 1
	.cfi_startproc
	pushq	%rbp
	.cfi_def_cfa_offset 16
	.cfi_offset 6, -16
	movq	%rsp, %rbp
	.cfi_def_cfa_register 6
	subq	$32, %rsp
	movq	%rdi, -8(%rbp)
	movq	%rsi, -16(%rbp)
	movl	%edx, -20(%rbp)
	movl	%ecx, -24(%rbp)
	.loc 1 1317 13
	movabsq	$active_vt, %rax
	movq	(%rax), %rax
	.loc 1 1317 8
	cmpq	%rax, -8(%rbp)
	jne	.L182
	.loc 1 1322 19
	movq	-16(%rbp), %rax
	movl	4(%rax), %eax
	.loc 1 1322 8
	testl	%eax, %eax
	je	.L181
	.loc 1 1325 18
	movq	-16(%rbp), %rax
	movl	12(%rax), %edx
	movabsq	$colors, %rax
	movl	%edx, %edx
	movzbl	(%rax,%rdx), %eax
	movsbl	%al, %eax
	sall	$4, %eax
	movzbl	%al, %edx
	movq	-16(%rbp), %rax
	movl	8(%rax), %ecx
	movabsq	$brightcolors, %rax
	movl	%ecx, %ecx
	movzbl	(%rax,%rcx), %eax
	movsbl	%al, %eax
	andl	$15, %eax
	orl	%edx, %eax
	sall	$8, %eax
	movl	%eax, %edx
	movq	-16(%rbp), %rax
	movzbl	(%rax), %eax
	cbtw
	movzbl	%al, %eax
	orl	%edx, %eax
	.loc 1 1324 9
	movzwl	%ax, %edx
	movl	-24(%rbp), %ecx
	movl	-20(%rbp), %eax
	movl	%ecx, %esi
	movl	%eax, %edi
	movabsq	$vga_cell, %rax
	call	*%rax
.LVL59:
	jmp	.L178
.L181:
	.loc 1 1332 13
	movq	-16(%rbp), %rax
	movl	12(%rax), %edx
	movabsq	$colors, %rax
	movl	%edx, %edx
	movzbl	(%rax,%rdx), %eax
	movsbl	%al, %eax
	sall	$4, %eax
	movzbl	%al, %edx
	movq	-16(%rbp), %rax
	movl	8(%rax), %ecx
	movabsq	$colors, %rax
	movl	%ecx, %ecx
	movzbl	(%rax,%rcx), %eax
	movsbl	%al, %eax
	andl	$15, %eax
	orl	%edx, %eax
	sall	$8, %eax
	movl	%eax, %edx
	movq	-16(%rbp), %rax
	movzbl	(%rax), %eax
	cbtw
	movzbl	%al, %eax
	orl	%edx, %eax
	.loc 1 1330 9
	movzwl	%ax, %edx
	movl	-24(%rbp), %ecx
	movl	-20(%rbp), %eax
	movl	%ecx, %esi
	movl	%eax, %edi
	movabsq	$vga_cell, %rax
	call	*%rax
.LVL60:
	jmp	.L178
.L182:
	.loc 1 1319 9
	nop
.L178:
	.loc 1 1334 1
	leave
	.cfi_restore 6
	.cfi_def_cfa 7, 8
	ret
	.cfi_endproc
.LFE34:
	.size	paint_callback, .-paint_callback
	.globl	cursor_move_callback
	.type	cursor_move_callback, @function
cursor_move_callback:
.LFB35:
	.loc 1 1338 1
	.cfi_startproc
	pushq	%rbp
	.cfi_def_cfa_offset 16
	.cfi_offset 6, -16
	movq	%rsp, %rbp
	.cfi_def_cfa_register 6
	subq	$16, %rsp
	movq	%rdi, -8(%rbp)
	movq	%rsi, -16(%rbp)
	.loc 1 1339 13
	movabsq	$active_vt, %rax
	movq	(%rax), %rax
	.loc 1 1339 8
	cmpq	%rax, -8(%rbp)
	jne	.L186
	.loc 1 1343 31
	movq	-16(%rbp), %rax
	movl	(%rax), %eax
	.loc 1 1343 5
	movslq	%eax, %rdx
	.loc 1 1343 23
	movq	-16(%rbp), %rax
	movl	4(%rax), %eax
	.loc 1 1343 5
	cltq
	movq	%rdx, %rsi
	movq	%rax, %rdi
	movabsq	$vga_set_cursor, %rax
	call	*%rax
.LVL61:
	jmp	.L183
.L186:
	.loc 1 1341 9
	nop
.L183:
	.loc 1 1344 1
	leave
	.cfi_restore 6
	.cfi_def_cfa 7, 8
	ret
	.cfi_endproc
.LFE35:
	.size	cursor_move_callback, .-cursor_move_callback
	.globl	vterminal_init
	.type	vterminal_init, @function
vterminal_init:
.LFB36:
	.loc 1 1348 1
	.cfi_startproc
	pushq	%rbp
	.cfi_def_cfa_offset 16
	.cfi_offset 6, -16
	movq	%rsp, %rbp
	.cfi_def_cfa_register 6
	subq	$16, %rsp
	movq	%rdi, -8(%rbp)
	.loc 1 1349 5
	movq	-8(%rbp), %rax
	movabsq	$cursor_move_callback, %r8
	movabsq	$paint_callback, %rdx
	movq	%rdx, %rcx
	movl	$25, %edx
	movl	$80, %esi
	movq	%rax, %rdi
	movabsq	$vtconsole, %rax
	call	*%rax
.LVL62:
	.loc 1 1351 1
	nop
	leave
	.cfi_restore 6
	.cfi_def_cfa 7, 8
	ret
	.cfi_endproc
.LFE36:
	.size	vterminal_init, .-vterminal_init
	.globl	vterminal_make_active
	.type	vterminal_make_active, @function
vterminal_make_active:
.LFB37:
	.loc 1 1355 1
	.cfi_startproc
	pushq	%rbp
	.cfi_def_cfa_offset 16
	.cfi_offset 6, -16
	movq	%rsp, %rbp
	.cfi_def_cfa_register 6
	subq	$16, %rsp
	movq	%rdi, -8(%rbp)
	.loc 1 1356 15
	movabsq	$active_vt, %rdx
	movq	-8(%rbp), %rax
	movq	%rax, (%rdx)
	.loc 1 1357 5
	movq	-8(%rbp), %rax
	movq	%rax, %rdi
	movabsq	$vtconsole_redraw, %rax
	call	*%rax
.LVL63:
	.loc 1 1358 44
	movq	-8(%rbp), %rax
	movl	116(%rax), %eax
	.loc 1 1358 5
	movslq	%eax, %rdx
	.loc 1 1358 30
	movq	-8(%rbp), %rax
	movl	120(%rax), %eax
	.loc 1 1358 5
	cltq
	movq	%rdx, %rsi
	movq	%rax, %rdi
	movabsq	$vga_set_cursor, %rax
	call	*%rax
.LVL64:
	.loc 1 1359 1
	nop
	leave
	.cfi_restore 6
	.cfi_def_cfa 7, 8
	ret
	.cfi_endproc
.LFE37:
	.size	vterminal_make_active, .-vterminal_make_active
	.globl	vterminal_key_pressed
	.type	vterminal_key_pressed, @function
vterminal_key_pressed:
.LFB38:
	.loc 1 1363 1
	.cfi_startproc
	pushq	%rbp
	.cfi_def_cfa_offset 16
	.cfi_offset 6, -16
	movq	%rsp, %rbp
	.cfi_def_cfa_register 6
	subq	$160, %rsp
	movq	%rdi, -152(%rbp)
	.loc 1 1366 9
	movq	-152(%rbp), %rax
	leaq	144(%rax), %rdx
	leaq	-144(%rbp), %rax
	movq	%rax, %rsi
	movq	%rdx, %rdi
	movabsq	$ldisc_get_current_line_raw, %rax
	call	*%rax
.LVL65:
	movq	%rax, -8(%rbp)
	.loc 1 1367 35
	movq	-8(%rbp), %rax
	subq	$1, %rax
	.loc 1 1367 30
	movzbl	-144(%rbp,%rax), %eax
	.loc 1 1367 5
	movsbl	%al, %edx
	movq	-152(%rbp), %rax
	movl	%edx, %esi
	movq	%rax, %rdi
	movabsq	$vtconsole_putchar, %rax
	call	*%rax
.LVL66:
	.loc 1 1368 1
	nop
	leave
	.cfi_restore 6
	.cfi_def_cfa 7, 8
	ret
	.cfi_endproc
.LFE38:
	.size	vterminal_key_pressed, .-vterminal_key_pressed
	.section	.rodata
.LC0:
	.string	"0"
.LC1:
	.string	"assertion failed: %s"
.LC2:
	.string	"drivers/tty/vterminal.c"
	.text
	.globl	vterminal_scroll_to_bottom
	.type	vterminal_scroll_to_bottom, @function
vterminal_scroll_to_bottom:
.LFB39:
	.loc 1 1370 50
	.cfi_startproc
	pushq	%rbp
	.cfi_def_cfa_offset 16
	.cfi_offset 6, -16
	movq	%rsp, %rbp
	.cfi_def_cfa_register 6
	subq	$16, %rsp
	movq	%rdi, -8(%rbp)
	.loc 1 1370 52
	movabsq	$.LC0, %r8
	movabsq	$.LC1, %rax
	movq	%rax, %rcx
	movabsq	$__func__.0, %rax
	movq	%rax, %rdx
	movl	$1370, %esi
	movabsq	$.LC2, %rax
	movq	%rax, %rdi
	movl	$0, %eax
	movabsq	$dbg_panic, %r9
	call	*%r9
.LVL67:
	.cfi_endproc
.LFE39:
	.size	vterminal_scroll_to_bottom, .-vterminal_scroll_to_bottom
	.globl	vterminal_write
	.type	vterminal_write, @function
vterminal_write:
.LFB40:
	.loc 1 1374 1
	.cfi_startproc
	pushq	%rbp
	.cfi_def_cfa_offset 16
	.cfi_offset 6, -16
	movq	%rsp, %rbp
	.cfi_def_cfa_register 6
	subq	$32, %rsp
	movq	%rdi, -8(%rbp)
	movq	%rsi, -16(%rbp)
	movq	%rdx, -24(%rbp)
	.loc 1 1375 5
	movq	-24(%rbp), %rax
	movl	%eax, %edx
	movq	-16(%rbp), %rcx
	movq	-8(%rbp), %rax
	movq	%rcx, %rsi
	movq	%rax, %rdi
	movabsq	$vtconsole_write, %rax
	call	*%rax
.LVL68:
	.loc 1 1376 12
	movq	-24(%rbp), %rax
	.loc 1 1377 1
	leave
	.cfi_restore 6
	.cfi_def_cfa 7, 8
	ret
	.cfi_endproc
.LFE40:
	.size	vterminal_write, .-vterminal_write
	.globl	vterminal_echo_input
	.type	vterminal_echo_input, @function
vterminal_echo_input:
.LFB41:
	.loc 1 1381 1
	.cfi_startproc
	pushq	%rbp
	.cfi_def_cfa_offset 16
	.cfi_offset 6, -16
	movq	%rsp, %rbp
	.cfi_def_cfa_register 6
	subq	$32, %rsp
	movq	%rdi, -8(%rbp)
	movq	%rsi, -16(%rbp)
	movq	%rdx, -24(%rbp)
	.loc 1 1382 5
	movq	-24(%rbp), %rax
	movl	%eax, %edx
	movq	-16(%rbp), %rcx
	movq	-8(%rbp), %rax
	movq	%rcx, %rsi
	movq	%rax, %rdi
	movabsq	$vtconsole_write, %rax
	call	*%rax
.LVL69:
	.loc 1 1383 12
	movq	-24(%rbp), %rax
	.loc 1 1384 1
	leave
	.cfi_restore 6
	.cfi_def_cfa 7, 8
	ret
	.cfi_endproc
.LFE41:
	.size	vterminal_echo_input, .-vterminal_echo_input
	.section	.rodata
	.align 16
	.type	__func__.0, @object
	.size	__func__.0, 27
__func__.0:
	.string	"vterminal_scroll_to_bottom"
	.text
.Letext0:
	.file 4 "include/types.h"
	.file 5 "include/util/list.h"
	.file 6 "include/proc/sched.h"
	.file 7 "include/proc/kmutex.h"
	.file 8 "include/proc/kthread.h"
	.file 9 "include/drivers/tty/ldisc.h"
	.file 10 "include/drivers/chardev.h"
	.file 11 "include/drivers/tty/vterminal.h"
	.file 12 "include/drivers/tty/tty.h"
	.file 13 "include/vm/vmmap.h"
	.file 14 "include/proc/proc.h"
	.file 15 "include/mm/pagetable.h"
	.file 16 "include/proc/context.h"
	.file 17 "include/drivers/screen.h"
	.file 18 "include/mm/kmalloc.h"
	.file 19 "include/util/string.h"
	.section	.note.GNU-stack,"",@progbits
