	.file	"sata.c"
	.text
.Ltext0:
	.file 1 "drivers/disk/sata.c"
	.type	__atomic_add_unless, @function
__atomic_add_unless:
.LFB0:
	.file 2 "include/util/atomic.h"
	.loc 2 9 1
	.cfi_startproc
	pushq	%rbp
	.cfi_def_cfa_offset 16
	.cfi_offset 6, -16
	movq	%rsp, %rbp
	.cfi_def_cfa_register 6
	subq	$32, %rsp
	movq	%rdi, -24(%rbp)
	movl	%esi, -28(%rbp)
	movl	%edx, -32(%rbp)
	.loc 2 11 9
	movq	-24(%rbp), %rax
	movl	$0, %edx
	lock xaddl	%edx, (%rax)
	.loc 2 11 7
	movl	%edx, -4(%rbp)
	.loc 2 12 11
	jmp	.L2
.L4:
	.loc 2 13 11
	movl	-8(%rbp), %eax
	movl	%eax, -4(%rbp)
.L2:
	.loc 2 12 19
	movl	-4(%rbp), %eax
	cmpl	-32(%rbp), %eax
	je	.L3
	.loc 2 12 65 discriminator 1
	movl	-4(%rbp), %edx
	movl	-28(%rbp), %eax
	addl	%edx, %eax
	.loc 2 12 29 discriminator 1
	movl	%eax, %ecx
	movl	-4(%rbp), %eax
	movq	-24(%rbp), %rdx
	lock cmpxchgl	%ecx, (%rdx)
	.loc 2 12 27 discriminator 1
	movl	%eax, -8(%rbp)
	.loc 2 12 19 discriminator 1
	movl	-8(%rbp), %eax
	cmpl	-4(%rbp), %eax
	jne	.L4
.L3:
	.loc 2 14 12
	movl	-4(%rbp), %eax
	.loc 2 15 1
	leave
	.cfi_restore 6
	.cfi_def_cfa 7, 8
	ret
	.cfi_endproc
.LFE0:
	.size	__atomic_add_unless, .-__atomic_add_unless
	.type	atomic_set, @function
atomic_set:
.LFB1:
	.loc 2 17 51
	.cfi_startproc
	pushq	%rbp
	.cfi_def_cfa_offset 16
	.cfi_offset 6, -16
	movq	%rsp, %rbp
	.cfi_def_cfa_register 6
	subq	$16, %rsp
	movq	%rdi, -8(%rbp)
	movl	%esi, -12(%rbp)
	.loc 2 17 56
	movq	-8(%rbp), %rax
	movl	-12(%rbp), %edx
	movl	%edx, (%rax)
	.loc 2 17 61
	nop
	leave
	.cfi_restore 6
	.cfi_def_cfa 7, 8
	ret
	.cfi_endproc
.LFE1:
	.size	atomic_set, .-atomic_set
	.type	atomic_inc, @function
atomic_inc:
.LFB2:
	.loc 2 19 44
	.cfi_startproc
	pushq	%rbp
	.cfi_def_cfa_offset 16
	.cfi_offset 6, -16
	movq	%rsp, %rbp
	.cfi_def_cfa_register 6
	subq	$8, %rsp
	movq	%rdi, -8(%rbp)
	.loc 2 19 46
	movq	-8(%rbp), %rax
	lock addl	$1, (%rax)
	.loc 2 19 74
	nop
	leave
	.cfi_restore 6
	.cfi_def_cfa 7, 8
	ret
	.cfi_endproc
.LFE2:
	.size	atomic_inc, .-atomic_inc
	.type	atomic_dec_and_test, @function
atomic_dec_and_test:
.LFB3:
	.loc 2 22 1
	.cfi_startproc
	pushq	%rbp
	.cfi_def_cfa_offset 16
	.cfi_offset 6, -16
	movq	%rsp, %rbp
	.cfi_def_cfa_register 6
	subq	$8, %rsp
	movq	%rdi, -8(%rbp)
	.loc 2 23 12
	movq	-8(%rbp), %rdx
	movl	$1, %eax
	negl	%eax
	movl	%eax, %ecx
	movl	%ecx, %eax
	lock xaddl	%eax, (%rdx)
	addl	%ecx, %eax
	.loc 2 23 39
	testl	%eax, %eax
	sete	%al
	movzbl	%al, %eax
	.loc 2 24 1
	leave
	.cfi_restore 6
	.cfi_def_cfa 7, 8
	ret
	.cfi_endproc
.LFE3:
	.size	atomic_dec_and_test, .-atomic_dec_and_test
	.type	atomic_inc_not_zero, @function
atomic_inc_not_zero:
.LFB4:
	.loc 2 27 1
	.cfi_startproc
	pushq	%rbp
	.cfi_def_cfa_offset 16
	.cfi_offset 6, -16
	movq	%rsp, %rbp
	.cfi_def_cfa_register 6
	subq	$40, %rsp
	movq	%rdi, -40(%rbp)
	movq	-40(%rbp), %rax
	movq	%rax, -8(%rbp)
	movl	$1, -12(%rbp)
	movl	$0, -16(%rbp)
.LBB13:
.LBB14:
	.loc 2 11 9
	movq	-8(%rbp), %rax
	movl	$0, %edx
	lock xaddl	%edx, (%rax)
	.loc 2 11 7
	movl	%edx, -20(%rbp)
	.loc 2 12 11
	jmp	.L11
.L13:
	.loc 2 13 11
	movl	-24(%rbp), %eax
	movl	%eax, -20(%rbp)
.L11:
	.loc 2 12 19
	movl	-16(%rbp), %eax
	cmpl	-20(%rbp), %eax
	je	.L12
	.loc 2 12 65
	movl	-12(%rbp), %edx
	movl	-20(%rbp), %eax
	addl	%edx, %eax
	.loc 2 12 29
	movl	%eax, %ecx
	movl	-20(%rbp), %eax
	movq	-8(%rbp), %rdx
	lock cmpxchgl	%ecx, (%rdx)
	.loc 2 12 27
	movl	%eax, -24(%rbp)
	.loc 2 12 19
	movl	-24(%rbp), %eax
	cmpl	-20(%rbp), %eax
	jne	.L13
.L12:
	.loc 2 14 12
	movl	-20(%rbp), %eax
.LBE14:
.LBE13:
	.loc 2 29 1
	leave
	.cfi_restore 6
	.cfi_def_cfa 7, 8
	ret
	.cfi_endproc
.LFE4:
	.size	atomic_inc_not_zero, .-atomic_inc_not_zero
	.data
	.type	px_interrupt_status_clear, @object
	.size	px_interrupt_status_clear, 4
px_interrupt_status_clear:
	.long	-1
	.type	px_interrupt_enable_all_enabled, @object
	.size	px_interrupt_enable_all_enabled, 4
px_interrupt_enable_all_enabled:
	.long	-1
	.text
	.type	intr_enabled, @function
intr_enabled:
.LFB5:
	.file 3 "include/main/interrupt.h"
	.loc 3 82 1
	.cfi_startproc
	pushq	%rbp
	.cfi_def_cfa_offset 16
	.cfi_offset 6, -16
	movq	%rsp, %rbp
	.cfi_def_cfa_register 6
	subq	$16, %rsp
	.loc 3 84 5
#APP
# 84 "include/main/interrupt.h" 1
	pushf; pop %rax; and $0x200, %rax;
# 0 "" 2
#NO_APP
	movq	%rax, -8(%rbp)
	.loc 3 86 12
	movq	-8(%rbp), %rax
	.loc 3 87 1
	leave
	.cfi_restore 6
	.cfi_def_cfa 7, 8
	ret
	.cfi_endproc
.LFE5:
	.size	intr_enabled, .-intr_enabled
	.type	intr_enable, @function
intr_enable:
.LFB6:
	.loc 3 89 34
	.cfi_startproc
	pushq	%rbp
	.cfi_def_cfa_offset 16
	.cfi_offset 6, -16
	movq	%rsp, %rbp
	.cfi_def_cfa_register 6
	.loc 3 89 36
#APP
# 89 "include/main/interrupt.h" 1
	sti
# 0 "" 2
	.loc 3 89 61
#NO_APP
	nop
	popq	%rbp
	.cfi_restore 6
	.cfi_def_cfa 7, 8
	ret
	.cfi_endproc
.LFE6:
	.size	intr_enable, .-intr_enable
	.type	intr_disable, @function
intr_disable:
.LFB7:
	.loc 3 91 35
	.cfi_startproc
	pushq	%rbp
	.cfi_def_cfa_offset 16
	.cfi_offset 6, -16
	movq	%rsp, %rbp
	.cfi_def_cfa_register 6
	.loc 3 91 37
#APP
# 91 "include/main/interrupt.h" 1
	cli
# 0 "" 2
	.loc 3 91 62
#NO_APP
	nop
	popq	%rbp
	.cfi_restore 6
	.cfi_def_cfa 7, 8
	ret
	.cfi_endproc
.LFE7:
	.size	intr_disable, .-intr_disable
	.type	intr_wait, @function
intr_wait:
.LFB8:
	.loc 3 98 1
	.cfi_startproc
	pushq	%rbp
	.cfi_def_cfa_offset 16
	.cfi_offset 6, -16
	movq	%rsp, %rbp
	.cfi_def_cfa_register 6
	.loc 3 105 5
#APP
# 105 "include/main/interrupt.h" 1
	sti; hlt
# 0 "" 2
	.loc 3 106 1
#NO_APP
	nop
	popq	%rbp
	.cfi_restore 6
	.cfi_def_cfa 7, 8
	ret
	.cfi_endproc
.LFE8:
	.size	intr_wait, .-intr_wait
	.type	equals, @function
equals:
.LFB9:
	.file 4 "include/util/debug.h"
	.loc 4 280 1
	.cfi_startproc
	pushq	%rbp
	.cfi_def_cfa_offset 16
	.cfi_offset 6, -16
	movq	%rsp, %rbp
	.cfi_def_cfa_register 6
	subq	$16, %rsp
	movq	%rdi, -8(%rbp)
	movq	%rsi, -16(%rbp)
	.loc 4 281 14
	movq	-8(%rbp), %rax
	cmpq	-16(%rbp), %rax
	sete	%al
	movzbl	%al, %eax
	.loc 4 282 1
	leave
	.cfi_restore 6
	.cfi_def_cfa 7, 8
	ret
	.cfi_endproc
.LFE9:
	.size	equals, .-equals
	.type	notequals, @function
notequals:
.LFB10:
	.loc 4 284 39
	.cfi_startproc
	pushq	%rbp
	.cfi_def_cfa_offset 16
	.cfi_offset 6, -16
	movq	%rsp, %rbp
	.cfi_def_cfa_register 6
	subq	$16, %rsp
	movq	%rdi, -8(%rbp)
	movq	%rsi, -16(%rbp)
	.loc 4 284 50
	movq	-8(%rbp), %rax
	cmpq	-16(%rbp), %rax
	setne	%al
	movzbl	%al, %eax
	.loc 4 284 56
	leave
	.cfi_restore 6
	.cfi_def_cfa 7, 8
	ret
	.cfi_endproc
.LFE10:
	.size	notequals, .-notequals
	.type	lessthan, @function
lessthan:
.LFB11:
	.loc 4 286 38
	.cfi_startproc
	pushq	%rbp
	.cfi_def_cfa_offset 16
	.cfi_offset 6, -16
	movq	%rsp, %rbp
	.cfi_def_cfa_register 6
	subq	$16, %rsp
	movq	%rdi, -8(%rbp)
	movq	%rsi, -16(%rbp)
	.loc 4 286 49
	movq	-8(%rbp), %rax
	cmpq	-16(%rbp), %rax
	setl	%al
	movzbl	%al, %eax
	.loc 4 286 54
	leave
	.cfi_restore 6
	.cfi_def_cfa 7, 8
	ret
	.cfi_endproc
.LFE11:
	.size	lessthan, .-lessthan
	.type	greaterthan, @function
greaterthan:
.LFB12:
	.loc 4 288 41
	.cfi_startproc
	pushq	%rbp
	.cfi_def_cfa_offset 16
	.cfi_offset 6, -16
	movq	%rsp, %rbp
	.cfi_def_cfa_register 6
	subq	$16, %rsp
	movq	%rdi, -8(%rbp)
	movq	%rsi, -16(%rbp)
	.loc 4 288 52
	movq	-8(%rbp), %rax
	cmpq	-16(%rbp), %rax
	setg	%al
	movzbl	%al, %eax
	.loc 4 288 57
	leave
	.cfi_restore 6
	.cfi_def_cfa 7, 8
	ret
	.cfi_endproc
.LFE12:
	.size	greaterthan, .-greaterthan
	.type	lessthaneq, @function
lessthaneq:
.LFB13:
	.loc 4 290 40
	.cfi_startproc
	pushq	%rbp
	.cfi_def_cfa_offset 16
	.cfi_offset 6, -16
	movq	%rsp, %rbp
	.cfi_def_cfa_register 6
	subq	$16, %rsp
	movq	%rdi, -8(%rbp)
	movq	%rsi, -16(%rbp)
	.loc 4 290 51
	movq	-8(%rbp), %rax
	cmpq	-16(%rbp), %rax
	setle	%al
	movzbl	%al, %eax
	.loc 4 290 57
	leave
	.cfi_restore 6
	.cfi_def_cfa 7, 8
	ret
	.cfi_endproc
.LFE13:
	.size	lessthaneq, .-lessthaneq
	.type	greaterthaneq, @function
greaterthaneq:
.LFB14:
	.loc 4 292 43
	.cfi_startproc
	pushq	%rbp
	.cfi_def_cfa_offset 16
	.cfi_offset 6, -16
	movq	%rsp, %rbp
	.cfi_def_cfa_register 6
	subq	$16, %rsp
	movq	%rdi, -8(%rbp)
	movq	%rsi, -16(%rbp)
	.loc 4 292 54
	movq	-8(%rbp), %rax
	cmpq	-16(%rbp), %rax
	setge	%al
	movzbl	%al, %eax
	.loc 4 292 60
	leave
	.cfi_restore 6
	.cfi_def_cfa 7, 8
	ret
	.cfi_endproc
.LFE14:
	.size	greaterthaneq, .-greaterthaneq
	.local	hba
	.comm	hba,8,8
	.local	outstanding_requests
	.comm	outstanding_requests,128,32
	.local	outstanding_request_queues
	.comm	outstanding_request_queues,24576,32
	.local	command_slot_queues
	.comm	command_slot_queues,768,32
	.data
	.align 16
	.type	sata_disk_ops, @object
	.size	sata_disk_ops, 16
sata_disk_ops:
	.quad	sata_read_block
	.quad	sata_write_block
	.text
	.globl	find_cmdslot
	.type	find_cmdslot, @function
find_cmdslot:
.LFB15:
	.loc 1 49 1
	.cfi_startproc
	pushq	%rbp
	.cfi_def_cfa_offset 16
	.cfi_offset 6, -16
	movq	%rsp, %rbp
	.cfi_def_cfa_register 6
	subq	$8, %rsp
	movq	%rdi, -8(%rbp)
	.loc 1 55 32
	movq	-8(%rbp), %rax
	movl	52(%rax), %edx
	.loc 1 55 48
	movq	-8(%rbp), %rax
	movl	56(%rax), %eax
	.loc 1 55 42
	movl	%edx, %ecx
	orl	%eax, %ecx
	.loc 1 56 49
	movabsq	$hba, %rax
	movq	(%rax), %rax
	addq	$256, %rax
	movq	-8(%rbp), %rdx
	subq	%rax, %rdx
	movq	%rdx, %rax
	sarq	$7, %rax
	movq	%rax, %rdx
	.loc 1 56 48
	movabsq	$outstanding_requests, %rax
	movl	(%rax,%rdx,4), %eax
	.loc 1 55 56
	orl	%ecx, %eax
	.loc 1 55 12
	notl	%eax
	rep bsfl	%eax, %eax
	cltq
	.loc 1 57 1
	leave
	.cfi_restore 6
	.cfi_def_cfa 7, 8
	ret
	.cfi_endproc
.LFE15:
	.size	find_cmdslot, .-find_cmdslot
	.globl	ensure_mapped
	.type	ensure_mapped, @function
ensure_mapped:
.LFB16:
	.loc 1 61 1
	.cfi_startproc
	pushq	%rbp
	.cfi_def_cfa_offset 16
	.cfi_offset 6, -16
	movq	%rsp, %rbp
	.cfi_def_cfa_register 6
	pushq	%r13
	pushq	%r12
	pushq	%rbx
	subq	$24, %rsp
	.cfi_offset 13, -24
	.cfi_offset 12, -32
	.cfi_offset 3, -40
	movq	%rdi, -40(%rbp)
	movq	%rsi, -48(%rbp)
	.loc 1 64 29
	movq	-40(%rbp), %rdx
	movq	-48(%rbp), %rax
	addq	%rdx, %rax
	addq	$4095, %rax
	.loc 1 62 5
	andq	$-4096, %rax
	movq	%rax, %r13
	movq	-40(%rbp), %rax
	andq	$-4096, %rax
	movq	%rax, %r12
	.loc 1 62 28
	movq	-40(%rbp), %rax
	andq	$-4096, %rax
	movq	%rax, %rdx
	.loc 1 62 5
	movabsq	$131941395333120, %rax
	leaq	(%rdx,%rax), %rbx
	movl	$0, %eax
	movabsq	$pt_get, %rdx
	call	*%rdx
.LVL0:
	movl	$3, %r9d
	movl	$3, %r8d
	movq	%r13, %rcx
	movq	%r12, %rdx
	movq	%rbx, %rsi
	movq	%rax, %rdi
	movabsq	$pt_map_range, %rax
	call	*%rax
.LVL1:
	.loc 1 66 1
	nop
	addq	$24, %rsp
	popq	%rbx
	.cfi_restore 3
	popq	%r12
	.cfi_restore 12
	popq	%r13
	.cfi_restore 13
	popq	%rbp
	.cfi_restore 6
	.cfi_def_cfa 7, 8
	ret
	.cfi_endproc
.LFE16:
	.size	ensure_mapped, .-ensure_mapped
	.globl	because_qemu_doesnt_emulate_ahci_ncq_correctly
	.bss
	.align 32
	.type	because_qemu_doesnt_emulate_ahci_ncq_correctly, @object
	.size	because_qemu_doesnt_emulate_ahci_ncq_correctly, 48
because_qemu_doesnt_emulate_ahci_ncq_correctly:
	.zero	48
	.section	.rodata
.LC0:
	.string	"count && buf"
.LC1:
	.string	"assertion failed: %s"
.LC2:
	.string	"drivers/disk/sata.c"
.LC3:
	.string	"lba >= 0 && lba < 1L << 23"
.LC4:
	.string	"command_header->prdtl"
.LC5:
	.string	"%s"
.LC6:
	.string	"C%ld P%ld "
.LC7:
	.string	"%s:%d %s(): "
.LC8:
	.string	"write"
.LC9:
	.string	"read"
	.align 8
.LC10:
	.string	"initiating request on slot %ld to %s sectors [%lu, %lu)\n"
.LC11:
	.string	"\033[0m"
.LC12:
	.string	"!curthr->kt_retval"
	.align 8
.LC13:
	.string	"initiating request on slot %ld to %s sectors [%lu, %lu)...sleeping\n"
	.align 8
.LC14:
	.string	"completed request on slot %ld to %s sectors [%lu, %lu)\n"
	.text
	.globl	ahci_do_operation
	.type	ahci_do_operation, @function
ahci_do_operation:
.LFB17:
	.loc 1 83 1
	.cfi_startproc
	pushq	%rbp
	.cfi_def_cfa_offset 16
	.cfi_offset 6, -16
	movq	%rsp, %rbp
	.cfi_def_cfa_register 6
	subq	$144, %rsp
	movq	%rdi, -120(%rbp)
	movq	%rsi, -128(%rbp)
	movl	%edx, %eax
	movq	%rcx, -144(%rbp)
	movl	%r8d, -136(%rbp)
	movw	%ax, -132(%rbp)
	.loc 1 84 5
	movabsq	$because_qemu_doesnt_emulate_ahci_ncq_correctly, %rax
	movq	%rax, %rdi
	movabsq	$kmutex_lock, %rax
	call	*%rax
.LVL2:
	.loc 1 85 5
	cmpw	$0, -132(%rbp)
	je	.L37
	.loc 1 85 5 is_stmt 0 discriminator 2
	cmpq	$0, -144(%rbp)
	jne	.L38
.L37:
	.loc 1 85 5 discriminator 3
	movabsq	$.LC0, %r8
	movabsq	$.LC1, %rax
	movq	%rax, %rcx
	movabsq	$__func__.3, %rax
	movq	%rax, %rdx
	movl	$85, %esi
	movabsq	$.LC2, %rax
	movq	%rax, %rdi
	movl	$0, %eax
	movabsq	$dbg_panic, %r9
	call	*%r9
.LVL3:
.L38:
	.loc 1 87 5 is_stmt 1
	cmpq	$0, -128(%rbp)
	js	.L39
	.loc 1 87 5 is_stmt 0 discriminator 2
	cmpq	$8388607, -128(%rbp)
	jle	.L40
.L39:
	.loc 1 87 5 discriminator 3
	movabsq	$.LC3, %r8
	movabsq	$.LC1, %rax
	movq	%rax, %rcx
	movabsq	$__func__.3, %rax
	movq	%rax, %rdx
	movl	$87, %esi
	movabsq	$.LC2, %rax
	movq	%rax, %rdi
	movl	$0, %eax
	movabsq	$dbg_panic, %r9
	call	*%r9
.LVL4:
.L40:
	.loc 1 90 25 is_stmt 1
	movabsq	$hba, %rax
	movq	(%rax), %rax
	addq	$256, %rax
	movq	-120(%rbp), %rdx
	subq	%rax, %rdx
	movq	%rdx, %rax
	sarq	$7, %rax
	.loc 1 90 12
	movq	%rax, -40(%rbp)
	.loc 1 92 19
	movl	$224, %edi
	movabsq	$intr_setipl, %rax
	call	*%rax
.LVL5:
	movb	%al, -41(%rbp)
	.loc 1 94 24
	movq	-144(%rbp), %rax
	movq	%rax, %rdi
	movabsq	$pt_virt_to_phys, %rax
	call	*%rax
.LVL6:
	movq	%rax, -8(%rbp)
	.loc 1 98 11
	jmp	.L41
.L43:
	.loc 1 100 44
	movq	-40(%rbp), %rdx
	movq	%rdx, %rax
	addq	%rax, %rax
	addq	%rdx, %rax
	salq	$3, %rax
	movq	%rax, %rdx
	.loc 1 100 9
	movabsq	$command_slot_queues, %rax
	addq	%rdx, %rax
	movq	%rax, %rdi
	movabsq	$sched_sleep_on, %rax
	call	*%rax
.LVL7:
.L41:
	movq	-120(%rbp), %rax
	movq	%rax, -104(%rbp)
.LBB15:
.LBB16:
	.loc 1 55 32
	movq	-104(%rbp), %rax
	movl	52(%rax), %edx
	.loc 1 55 48
	movq	-104(%rbp), %rax
	movl	56(%rax), %eax
	.loc 1 55 42
	movl	%edx, %ecx
	orl	%eax, %ecx
	.loc 1 56 49
	movabsq	$hba, %rax
	movq	(%rax), %rax
	addq	$256, %rax
	movq	-104(%rbp), %rdx
	subq	%rax, %rdx
	movq	%rdx, %rax
	sarq	$7, %rax
	movq	%rax, %rdx
	.loc 1 56 48
	movabsq	$outstanding_requests, %rax
	movl	(%rax,%rdx,4), %eax
	.loc 1 55 56
	orl	%ecx, %eax
	.loc 1 55 12
	notl	%eax
	rep bsfl	%eax, %eax
	cltq
.LBE16:
.LBE15:
	.loc 1 98 28
	movq	%rax, -56(%rbp)
	.loc 1 98 48
	cmpq	$-1, -56(%rbp)
	je	.L43
	.loc 1 105 32
	movq	-120(%rbp), %rax
	movq	(%rax), %rax
	.loc 1 105 41
	movabsq	$-131941395333120, %rdx
	addq	%rdx, %rax
	.loc 1 104 21
	movq	%rax, -64(%rbp)
	.loc 1 107 9
	movq	-64(%rbp), %rax
	.loc 1 107 39
	movq	-56(%rbp), %rdx
	salq	$5, %rdx
	.loc 1 106 23
	addq	%rdx, %rax
	movq	%rax, -72(%rbp)
	.loc 1 108 5
	movq	-72(%rbp), %rax
	movl	$32, %edx
	movl	$0, %esi
	movq	%rax, %rdi
	movabsq	$memset, %rax
	call	*%rax
.LVL8:
	.loc 1 111 25
	movq	-72(%rbp), %rax
	movzbl	(%rax), %edx
	andl	$-32, %edx
	orl	$5, %edx
	movb	%dl, (%rax)
	.loc 1 112 29
	movl	-136(%rbp), %eax
	andl	$1, %eax
	.loc 1 112 27
	movq	-72(%rbp), %rdx
	andl	$1, %eax
	sall	$6, %eax
	movl	%eax, %ecx
	movzbl	(%rdx), %eax
	andl	$-65, %eax
	orl	%ecx, %eax
	movb	%al, (%rdx)
	.loc 1 114 9
	movzwl	-132(%rbp), %eax
	subl	$1, %eax
	andl	$-8192, %eax
	addl	$8192, %eax
	.loc 1 114 54
	leal	8191(%rax), %edx
	testl	%eax, %eax
	cmovs	%edx, %eax
	sarl	$13, %eax
	.loc 1 113 29
	movl	%eax, %edx
	.loc 1 113 27
	movq	-72(%rbp), %rax
	movw	%dx, 2(%rax)
	.loc 1 115 5
	movq	-72(%rbp), %rax
	movzwl	2(%rax), %eax
	testw	%ax, %ax
	jne	.L44
	.loc 1 115 5 is_stmt 0 discriminator 1
	movabsq	$.LC4, %r8
	movabsq	$.LC1, %rax
	movq	%rax, %rcx
	movabsq	$__func__.3, %rax
	movq	%rax, %rdx
	movl	$115, %esi
	movabsq	$.LC2, %rax
	movq	%rax, %rdi
	movl	$0, %eax
	movabsq	$dbg_panic, %r9
	call	*%r9
.LVL9:
.L44:
	.loc 1 119 43 is_stmt 1
	movq	-72(%rbp), %rax
	movq	8(%rax), %rax
	.loc 1 119 50
	movabsq	$-131941395333120, %rdx
	addq	%rdx, %rax
	.loc 1 118 22
	movq	%rax, -80(%rbp)
	.loc 1 120 5
	movq	-80(%rbp), %rax
	movl	$256, %edx
	movl	$0, %esi
	movq	%rax, %rdi
	movabsq	$memset, %rax
	call	*%rax
.LVL10:
	.loc 1 123 12
	movq	-80(%rbp), %rax
	subq	$-128, %rax
	movq	%rax, -16(%rbp)
.LBB17:
	.loc 1 126 19
	movl	$0, -20(%rbp)
	.loc 1 126 5
	jmp	.L45
.L46:
	.loc 1 128 19 discriminator 3
	movq	-16(%rbp), %rax
	movzbl	12(%rax), %edx
	orl	$-1, %edx
	movb	%dl, 12(%rax)
	movzbl	13(%rax), %edx
	orl	$-1, %edx
	movb	%dl, 13(%rax)
	movzbl	14(%rax), %edx
	orl	$63, %edx
	movb	%dl, 14(%rax)
	.loc 1 129 19 discriminator 3
	movq	-16(%rbp), %rax
	movq	-8(%rbp), %rdx
	movq	%rdx, (%rax)
	.loc 1 130 17 discriminator 3
	movq	-16(%rbp), %rax
	movzbl	15(%rax), %edx
	orl	$-128, %edx
	movb	%dl, 15(%rax)
	.loc 1 131 17 discriminator 3
	addq	$4194304, -8(%rbp)
	.loc 1 133 13 discriminator 3
	addq	$16, -16(%rbp)
	.loc 1 126 59 discriminator 3
	addl	$1, -20(%rbp)
.L45:
	.loc 1 126 44 discriminator 1
	movq	-72(%rbp), %rax
	movzwl	2(%rax), %eax
	movzwl	%ax, %eax
	.loc 1 126 52 discriminator 1
	subl	$1, %eax
	.loc 1 126 28 discriminator 1
	cmpl	%eax, -20(%rbp)
	jb	.L46
.LBE17:
	.loc 1 135 17
	movzwl	-132(%rbp), %eax
	andl	$8191, %eax
	.loc 1 135 59
	sall	$9, %eax
	.loc 1 135 77
	subl	$1, %eax
	andl	$4194303, %eax
	movl	%eax, %edx
	.loc 1 135 15
	movq	-16(%rbp), %rax
	movl	%edx, %ecx
	movzbl	%cl, %esi
	movzbl	12(%rax), %ecx
	andl	$0, %ecx
	orl	%esi, %ecx
	movb	%cl, 12(%rax)
	movl	%edx, %ecx
	shrl	$8, %ecx
	movl	%ecx, %ecx
	movzbl	%cl, %esi
	movzbl	13(%rax), %ecx
	andl	$0, %ecx
	orl	%esi, %ecx
	movb	%cl, 13(%rax)
	shrl	$16, %edx
	movl	%edx, %edx
	andl	$63, %edx
	movl	%edx, %ecx
	andl	$63, %ecx
	movzbl	14(%rax), %edx
	andl	$-64, %edx
	orl	%ecx, %edx
	movb	%dl, 14(%rax)
	.loc 1 136 15
	movq	-16(%rbp), %rax
	movq	-8(%rbp), %rdx
	movq	%rdx, (%rax)
	.loc 1 139 25
	movq	-80(%rbp), %rax
	movq	%rax, -88(%rbp)
	.loc 1 140 27
	movq	-88(%rbp), %rax
	movb	$39, (%rax)
	.loc 1 141 20
	movq	-88(%rbp), %rax
	movzbl	1(%rax), %edx
	orl	$-128, %edx
	movb	%dl, 1(%rax)
	.loc 1 142 25
	movq	-88(%rbp), %rax
	movb	$64, 7(%rax)
	.loc 1 143 24
	movq	-128(%rbp), %rax
	movl	%eax, %edx
	andl	$16777215, %edx
	.loc 1 143 22
	movq	-88(%rbp), %rax
	movl	%edx, %ecx
	movzbl	%cl, %esi
	movzbl	4(%rax), %ecx
	andl	$0, %ecx
	orl	%esi, %ecx
	movb	%cl, 4(%rax)
	movl	%edx, %ecx
	shrl	$8, %ecx
	movl	%ecx, %ecx
	movzbl	%cl, %esi
	movzbl	5(%rax), %ecx
	andl	$0, %ecx
	orl	%esi, %ecx
	movb	%cl, 5(%rax)
	shrl	$16, %edx
	movl	%edx, %edx
	movzbl	%dl, %ecx
	movzbl	6(%rax), %edx
	andl	$0, %edx
	orl	%ecx, %edx
	movb	%dl, 6(%rax)
	.loc 1 144 43
	movq	-128(%rbp), %rax
	sarq	$24, %rax
	.loc 1 144 28
	movl	%eax, %edx
	andl	$16777215, %edx
	.loc 1 144 26
	movq	-88(%rbp), %rax
	movl	%edx, %ecx
	movzbl	%cl, %esi
	movzbl	8(%rax), %ecx
	andl	$0, %ecx
	orl	%esi, %ecx
	movb	%cl, 8(%rax)
	movl	%edx, %ecx
	shrl	$8, %ecx
	movl	%ecx, %ecx
	movzbl	%cl, %esi
	movzbl	9(%rax), %ecx
	andl	$0, %ecx
	orl	%esi, %ecx
	movb	%cl, 9(%rax)
	shrl	$16, %edx
	movl	%edx, %edx
	movzbl	%dl, %ecx
	movzbl	10(%rax), %edx
	andl	$0, %edx
	orl	%ecx, %edx
	movb	%dl, 10(%rax)
	.loc 1 149 12
	movabsq	$hba, %rax
	movq	(%rax), %rax
	.loc 1 149 9
	movzbl	3(%rax), %eax
	andl	$64, %eax
	.loc 1 149 8
	testb	%al, %al
	je	.L47
	.loc 1 152 33
	movzwl	-132(%rbp), %eax
	movl	%eax, %edx
	.loc 1 152 31
	movq	-88(%rbp), %rax
	movb	%dl, 3(%rax)
	.loc 1 153 37
	movzwl	-132(%rbp), %eax
	shrw	$8, %ax
	movl	%eax, %edx
	.loc 1 153 35
	movq	-88(%rbp), %rax
	movb	%dl, 11(%rax)
	.loc 1 156 37
	movq	-56(%rbp), %rax
	leal	0(,%rax,8), %edx
	.loc 1 156 35
	movq	-88(%rbp), %rax
	movw	%dx, 12(%rax)
	.loc 1 159 32
	cmpl	$0, -136(%rbp)
	je	.L48
	.loc 1 159 32 is_stmt 0 discriminator 1
	movl	$97, %edx
	jmp	.L49
.L48:
	.loc 1 159 32 discriminator 2
	movl	$96, %edx
.L49:
	.loc 1 159 30 is_stmt 1 discriminator 4
	movq	-88(%rbp), %rax
	movb	%dl, 2(%rax)
	jmp	.L50
.L47:
	.loc 1 164 35
	movq	-88(%rbp), %rax
	movzwl	-132(%rbp), %edx
	movw	%dx, 12(%rax)
	.loc 1 166 32
	cmpl	$0, -136(%rbp)
	je	.L51
	.loc 1 166 32 is_stmt 0 discriminator 1
	movl	$53, %edx
	jmp	.L52
.L51:
	.loc 1 166 32 discriminator 2
	movl	$37, %edx
.L52:
	.loc 1 166 30 is_stmt 1 discriminator 4
	movq	-88(%rbp), %rax
	movb	%dl, 2(%rax)
.L50:
	.loc 1 177 5
	movabsq	$dbg_modes, %rax
	movq	(%rax), %rax
	andl	$16, %eax
	testq	%rax, %rax
	je	.L53
	.loc 1 177 5 is_stmt 0 discriminator 1
	movl	$16, %edi
	movabsq	$dbg_color, %rax
	call	*%rax
.LVL11:
	movq	%rax, %rsi
	movabsq	$.LC5, %rax
	movq	%rax, %rdi
	movl	$0, %eax
	movabsq	$dbg_print, %rdx
	call	*%rdx
.LVL12:
	movabsq	$curproc, %rax
	movq	(%rax), %rax
	testq	%rax, %rax
	je	.L54
	.loc 1 177 5 discriminator 2
	movabsq	$curproc, %rax
	movq	(%rax), %rax
	movl	(%rax), %eax
	cltq
	jmp	.L55
.L54:
	.loc 1 177 5 discriminator 3
	movq	$-1, %rax
.L55:
	.loc 1 177 5 discriminator 5
	movabsq	$curcore, %rdx
	movq	(%rdx), %rcx
	movq	%rax, %rdx
	movq	%rcx, %rsi
	movabsq	$.LC6, %rax
	movq	%rax, %rdi
	movl	$0, %eax
	movabsq	$dbg_print, %rcx
	call	*%rcx
.LVL13:
	movabsq	$__func__.3, %rax
	movq	%rax, %rcx
	movl	$177, %edx
	movabsq	$.LC2, %rax
	movq	%rax, %rsi
	movabsq	$.LC7, %rax
	movq	%rax, %rdi
	movl	$0, %eax
	movabsq	$dbg_print, %r8
	call	*%r8
.LVL14:
	movzwl	-132(%rbp), %edx
	movq	-128(%rbp), %rax
	leaq	(%rdx,%rax), %rcx
	cmpl	$0, -136(%rbp)
	je	.L56
	.loc 1 177 5 discriminator 6
	movabsq	$.LC8, %rax
	jmp	.L57
.L56:
	.loc 1 177 5 discriminator 7
	movabsq	$.LC9, %rax
.L57:
	.loc 1 177 5 discriminator 9
	movq	-128(%rbp), %rdx
	movq	-56(%rbp), %rsi
	movq	%rcx, %r8
	movq	%rdx, %rcx
	movq	%rax, %rdx
	movabsq	$.LC10, %rax
	movq	%rax, %rdi
	movl	$0, %eax
	movabsq	$dbg_print, %r9
	call	*%r9
.LVL15:
	movabsq	$.LC11, %rax
	movq	%rax, %rsi
	movabsq	$.LC5, %rax
	movq	%rax, %rdi
	movl	$0, %eax
	movabsq	$dbg_print, %rdx
	call	*%rdx
.LVL16:
.L53:
	.loc 1 182 25 is_stmt 1
	movabsq	$outstanding_requests, %rdx
	movq	-40(%rbp), %rax
	movl	(%rdx,%rax,4), %eax
	.loc 1 182 44
	movq	-56(%rbp), %rdx
	movl	$1, %esi
	movl	%edx, %ecx
	sall	%cl, %esi
	movl	%esi, %edx
	.loc 1 182 38
	orl	%edx, %eax
	movl	%eax, %ecx
	movabsq	$outstanding_requests, %rdx
	movq	-40(%rbp), %rax
	movl	%ecx, (%rdx,%rax,4)
	.loc 1 185 9
	movq	-120(%rbp), %rax
	movl	52(%rax), %eax
	.loc 1 185 25
	movq	-56(%rbp), %rdx
	movl	$1, %esi
	movl	%edx, %ecx
	sall	%cl, %esi
	movl	%esi, %edx
	.loc 1 185 19
	orl	%eax, %edx
	movq	-120(%rbp), %rax
	movl	%edx, 52(%rax)
	.loc 1 186 9
	movq	-120(%rbp), %rax
	movl	56(%rax), %eax
	.loc 1 186 23
	movq	-56(%rbp), %rdx
	movl	$1, %esi
	movl	%edx, %ecx
	sall	%cl, %esi
	movl	%esi, %edx
	.loc 1 186 17
	orl	%eax, %edx
	movq	-120(%rbp), %rax
	movl	%edx, 56(%rax)
	.loc 1 188 11
	movq	$0, -32(%rbp)
	.loc 1 189 15
	movabsq	$curthr, %rax
	movq	(%rax), %rax
	movq	56(%rax), %rax
	.loc 1 189 8
	testq	%rax, %rax
	je	.L58
	.loc 1 191 28
	movabsq	$curthr, %rax
	movq	(%rax), %rax
	.loc 1 191 20
	movq	56(%rax), %rax
	movq	%rax, -32(%rbp)
	.loc 1 192 15
	movabsq	$curthr, %rax
	movq	(%rax), %rax
	.loc 1 192 27
	movq	$0, 56(%rax)
.L58:
	.loc 1 195 5
	movabsq	$curthr, %rax
	movq	(%rax), %rax
	movq	56(%rax), %rax
	testq	%rax, %rax
	je	.L59
	.loc 1 195 5 is_stmt 0 discriminator 1
	movabsq	$.LC12, %r8
	movabsq	$.LC1, %rax
	movq	%rax, %rcx
	movabsq	$__func__.3, %rax
	movq	%rax, %rdx
	movl	$195, %esi
	movabsq	$.LC2, %rax
	movq	%rax, %rdi
	movl	$0, %eax
	movabsq	$dbg_panic, %r9
	call	*%r9
.LVL17:
.L59:
	.loc 1 197 5 is_stmt 1
	movabsq	$dbg_modes, %rax
	movq	(%rax), %rax
	andl	$16, %eax
	testq	%rax, %rax
	je	.L60
	.loc 1 197 5 is_stmt 0 discriminator 1
	movl	$16, %edi
	movabsq	$dbg_color, %rax
	call	*%rax
.LVL18:
	movq	%rax, %rsi
	movabsq	$.LC5, %rax
	movq	%rax, %rdi
	movl	$0, %eax
	movabsq	$dbg_print, %rdx
	call	*%rdx
.LVL19:
	movabsq	$curproc, %rax
	movq	(%rax), %rax
	testq	%rax, %rax
	je	.L61
	.loc 1 197 5 discriminator 2
	movabsq	$curproc, %rax
	movq	(%rax), %rax
	movl	(%rax), %eax
	cltq
	jmp	.L62
.L61:
	.loc 1 197 5 discriminator 3
	movq	$-1, %rax
.L62:
	.loc 1 197 5 discriminator 5
	movabsq	$curcore, %rdx
	movq	(%rdx), %rcx
	movq	%rax, %rdx
	movq	%rcx, %rsi
	movabsq	$.LC6, %rax
	movq	%rax, %rdi
	movl	$0, %eax
	movabsq	$dbg_print, %rcx
	call	*%rcx
.LVL20:
	movabsq	$__func__.3, %rax
	movq	%rax, %rcx
	movl	$197, %edx
	movabsq	$.LC2, %rax
	movq	%rax, %rsi
	movabsq	$.LC7, %rax
	movq	%rax, %rdi
	movl	$0, %eax
	movabsq	$dbg_print, %r8
	call	*%r8
.LVL21:
	movzwl	-132(%rbp), %edx
	movq	-128(%rbp), %rax
	leaq	(%rdx,%rax), %rcx
	cmpl	$0, -136(%rbp)
	je	.L63
	.loc 1 197 5 discriminator 6
	movabsq	$.LC8, %rax
	jmp	.L64
.L63:
	.loc 1 197 5 discriminator 7
	movabsq	$.LC9, %rax
.L64:
	.loc 1 197 5 discriminator 9
	movq	-128(%rbp), %rdx
	movq	-56(%rbp), %rsi
	movq	%rcx, %r8
	movq	%rdx, %rcx
	movq	%rax, %rdx
	movabsq	$.LC13, %rax
	movq	%rax, %rdi
	movl	$0, %eax
	movabsq	$dbg_print, %r9
	call	*%r9
.LVL22:
	movabsq	$.LC11, %rax
	movq	%rax, %rsi
	movabsq	$.LC5, %rax
	movq	%rax, %rdi
	movl	$0, %eax
	movabsq	$dbg_print, %rdx
	call	*%rdx
.LVL23:
.L60:
	.loc 1 200 20 is_stmt 1
	movq	-40(%rbp), %rdx
	movq	%rdx, %rax
	addq	%rax, %rax
	addq	%rdx, %rax
	salq	$8, %rax
	movabsq	$outstanding_request_queues, %rdx
	leaq	(%rax,%rdx), %rcx
	.loc 1 200 59
	movq	-56(%rbp), %rdx
	movq	%rdx, %rax
	addq	%rax, %rax
	addq	%rdx, %rax
	salq	$3, %rax
	.loc 1 200 5
	addq	%rcx, %rax
	movq	%rax, %rdi
	movabsq	$sched_sleep_on, %rax
	call	*%rax
.LVL24:
	.loc 1 201 5
	movzbl	-41(%rbp), %eax
	movl	%eax, %edi
	movabsq	$intr_setipl, %rax
	call	*%rax
.LVL25:
	.loc 1 202 5
	movabsq	$dbg_modes, %rax
	movq	(%rax), %rax
	andl	$16, %eax
	testq	%rax, %rax
	je	.L65
	.loc 1 202 5 is_stmt 0 discriminator 1
	movl	$16, %edi
	movabsq	$dbg_color, %rax
	call	*%rax
.LVL26:
	movq	%rax, %rsi
	movabsq	$.LC5, %rax
	movq	%rax, %rdi
	movl	$0, %eax
	movabsq	$dbg_print, %rdx
	call	*%rdx
.LVL27:
	movabsq	$curproc, %rax
	movq	(%rax), %rax
	testq	%rax, %rax
	je	.L66
	.loc 1 202 5 discriminator 2
	movabsq	$curproc, %rax
	movq	(%rax), %rax
	movl	(%rax), %eax
	cltq
	jmp	.L67
.L66:
	.loc 1 202 5 discriminator 3
	movq	$-1, %rax
.L67:
	.loc 1 202 5 discriminator 5
	movabsq	$curcore, %rdx
	movq	(%rdx), %rcx
	movq	%rax, %rdx
	movq	%rcx, %rsi
	movabsq	$.LC6, %rax
	movq	%rax, %rdi
	movl	$0, %eax
	movabsq	$dbg_print, %rcx
	call	*%rcx
.LVL28:
	movabsq	$__func__.3, %rax
	movq	%rax, %rcx
	movl	$202, %edx
	movabsq	$.LC2, %rax
	movq	%rax, %rsi
	movabsq	$.LC7, %rax
	movq	%rax, %rdi
	movl	$0, %eax
	movabsq	$dbg_print, %r8
	call	*%r8
.LVL29:
	movzwl	-132(%rbp), %edx
	movq	-128(%rbp), %rax
	leaq	(%rdx,%rax), %rcx
	cmpl	$0, -136(%rbp)
	je	.L68
	.loc 1 202 5 discriminator 6
	movabsq	$.LC8, %rax
	jmp	.L69
.L68:
	.loc 1 202 5 discriminator 7
	movabsq	$.LC9, %rax
.L69:
	.loc 1 202 5 discriminator 9
	movq	-128(%rbp), %rdx
	movq	-56(%rbp), %rsi
	movq	%rcx, %r8
	movq	%rdx, %rcx
	movq	%rax, %rdx
	movabsq	$.LC14, %rax
	movq	%rax, %rdi
	movl	$0, %eax
	movabsq	$dbg_print, %r9
	call	*%r9
.LVL30:
	movabsq	$.LC11, %rax
	movq	%rax, %rsi
	movabsq	$.LC5, %rax
	movq	%rax, %rdi
	movl	$0, %eax
	movabsq	$dbg_print, %rdx
	call	*%rdx
.LVL31:
.L65:
	.loc 1 204 5 is_stmt 1
	movabsq	$because_qemu_doesnt_emulate_ahci_ncq_correctly, %rax
	movq	%rax, %rdi
	movabsq	$kmutex_unlock, %rax
	call	*%rax
.LVL32:
	.loc 1 206 28
	movabsq	$curthr, %rax
	movq	(%rax), %rax
	movq	56(%rax), %rax
	.loc 1 206 10
	movq	%rax, -96(%rbp)
	.loc 1 207 8
	cmpq	$0, -32(%rbp)
	je	.L70
	.loc 1 209 15
	movabsq	$curthr, %rax
	movq	(%rax), %rax
	.loc 1 209 27
	movq	-32(%rbp), %rdx
	movq	%rdx, 56(%rax)
.L70:
	.loc 1 211 12
	movq	-96(%rbp), %rax
	.loc 1 212 1
	leave
	.cfi_restore 6
	.cfi_def_cfa 7, 8
	ret
	.cfi_endproc
.LFE17:
	.size	ahci_do_operation, .-ahci_do_operation
	.type	start_cmd, @function
start_cmd:
.LFB18:
	.loc 1 216 1
	.cfi_startproc
	pushq	%rbp
	.cfi_def_cfa_offset 16
	.cfi_offset 6, -16
	movq	%rsp, %rbp
	.cfi_def_cfa_register 6
	subq	$8, %rsp
	movq	%rdi, -8(%rbp)
	.loc 1 217 11
	nop
.L73:
	.loc 1 217 12 discriminator 1
	movq	-8(%rbp), %rax
	movzbl	25(%rax), %eax
	andl	$-128, %eax
	testb	%al, %al
	jne	.L73
	.loc 1 219 22
	movq	-8(%rbp), %rax
	movzbl	24(%rax), %edx
	orl	$16, %edx
	movb	%dl, 24(%rax)
	.loc 1 220 21
	movq	-8(%rbp), %rax
	movzbl	24(%rax), %edx
	orl	$1, %edx
	movb	%dl, 24(%rax)
	.loc 1 221 1
	nop
	leave
	.cfi_restore 6
	.cfi_def_cfa 7, 8
	ret
	.cfi_endproc
.LFE18:
	.size	start_cmd, .-start_cmd
	.type	stop_cmd, @function
stop_cmd:
.LFB19:
	.loc 1 225 1
	.cfi_startproc
	pushq	%rbp
	.cfi_def_cfa_offset 16
	.cfi_offset 6, -16
	movq	%rsp, %rbp
	.cfi_def_cfa_register 6
	subq	$8, %rsp
	movq	%rdi, -8(%rbp)
	.loc 1 226 21
	movq	-8(%rbp), %rax
	movzbl	24(%rax), %edx
	andl	$-2, %edx
	movb	%dl, 24(%rax)
	.loc 1 227 11
	nop
.L75:
	.loc 1 227 12 discriminator 1
	movq	-8(%rbp), %rax
	movzbl	25(%rax), %eax
	andl	$-128, %eax
	testb	%al, %al
	jne	.L75
	.loc 1 229 22
	movq	-8(%rbp), %rax
	movzbl	24(%rax), %edx
	andl	$-17, %edx
	movb	%dl, 24(%rax)
	.loc 1 230 11
	nop
.L76:
	.loc 1 230 12 discriminator 1
	movq	-8(%rbp), %rax
	movzbl	25(%rax), %eax
	andl	$64, %eax
	testb	%al, %al
	jne	.L76
	.loc 1 232 1
	nop
	nop
	leave
	.cfi_restore 6
	.cfi_def_cfa 7, 8
	ret
	.cfi_endproc
.LFE19:
	.size	stop_cmd, .-stop_cmd
	.section	.rodata
.LC15:
	.string	"Initializing AHCI Port %d\n"
	.align 8
.LC16:
	.string	"\tAdding SATA Disk Drive at Port %d\n"
.LC17:
	.string	"!ret"
	.align 8
.LC18:
	.string	"\tunknown device signature: 0x%x\n"
	.text
	.type	ahci_initialize_port, @function
ahci_initialize_port:
.LFB20:
	.loc 1 237 1
	.cfi_startproc
	pushq	%rbp
	.cfi_def_cfa_offset 16
	.cfi_offset 6, -16
	movq	%rsp, %rbp
	.cfi_def_cfa_register 6
	subq	$96, %rsp
	movq	%rdi, -72(%rbp)
	movl	%esi, -76(%rbp)
	movq	%rdx, -88(%rbp)
	.loc 1 238 5
	movabsq	$dbg_modes, %rax
	movq	(%rax), %rax
	andl	$16, %eax
	testq	%rax, %rax
	je	.L78
	.loc 1 238 5 is_stmt 0 discriminator 1
	movl	$16, %edi
	movabsq	$dbg_color, %rax
	call	*%rax
.LVL33:
	movq	%rax, %rsi
	movabsq	$.LC5, %rax
	movq	%rax, %rdi
	movl	$0, %eax
	movabsq	$dbg_print, %rdx
	call	*%rdx
.LVL34:
	movabsq	$curproc, %rax
	movq	(%rax), %rax
	testq	%rax, %rax
	je	.L79
	.loc 1 238 5 discriminator 2
	movabsq	$curproc, %rax
	movq	(%rax), %rax
	movl	(%rax), %eax
	cltq
	jmp	.L80
.L79:
	.loc 1 238 5 discriminator 3
	movq	$-1, %rax
.L80:
	.loc 1 238 5 discriminator 5
	movabsq	$curcore, %rdx
	movq	(%rdx), %rcx
	movq	%rax, %rdx
	movq	%rcx, %rsi
	movabsq	$.LC6, %rax
	movq	%rax, %rdi
	movl	$0, %eax
	movabsq	$dbg_print, %rcx
	call	*%rcx
.LVL35:
	movabsq	$__func__.2, %rax
	movq	%rax, %rcx
	movl	$238, %edx
	movabsq	$.LC2, %rax
	movq	%rax, %rsi
	movabsq	$.LC7, %rax
	movq	%rax, %rdi
	movl	$0, %eax
	movabsq	$dbg_print, %r8
	call	*%r8
.LVL36:
	movl	-76(%rbp), %eax
	movl	%eax, %esi
	movabsq	$.LC15, %rax
	movq	%rax, %rdi
	movl	$0, %eax
	movabsq	$dbg_print, %rdx
	call	*%rdx
.LVL37:
	movabsq	$.LC11, %rax
	movq	%rax, %rsi
	movabsq	$.LC5, %rax
	movq	%rax, %rdi
	movl	$0, %eax
	movabsq	$dbg_print, %rdx
	call	*%rdx
.LVL38:
.L78:
	movq	-72(%rbp), %rax
	movq	%rax, -56(%rbp)
.LBB18:
.LBB19:
	.loc 1 226 21 is_stmt 1
	movq	-56(%rbp), %rax
	movzbl	24(%rax), %edx
	andl	$-2, %edx
	movb	%dl, 24(%rax)
	.loc 1 227 11
	nop
.L81:
	.loc 1 227 12
	movq	-56(%rbp), %rax
	movzbl	25(%rax), %eax
	andl	$-128, %eax
	testb	%al, %al
	jne	.L81
	.loc 1 229 22
	movq	-56(%rbp), %rax
	movzbl	24(%rax), %edx
	andl	$-17, %edx
	movb	%dl, 24(%rax)
	.loc 1 230 11
	nop
.L82:
	.loc 1 230 12
	movq	-56(%rbp), %rax
	movzbl	25(%rax), %eax
	andl	$64, %eax
	testb	%al, %al
	jne	.L82
	.loc 1 232 1
	nop
.LBE19:
.LBE18:
	.loc 1 252 67
	movl	-76(%rbp), %eax
	salq	$10, %rax
	movq	%rax, %rdx
	movq	-88(%rbp), %rax
	addq	%rdx, %rax
	.loc 1 251 21
	movq	%rax, -16(%rbp)
	.loc 1 254 67
	movl	-76(%rbp), %eax
	salq	$8, %rax
	movq	%rax, %rdx
	movq	-88(%rbp), %rax
	addq	%rdx, %rax
	addq	$32768, %rax
	.loc 1 253 21
	movq	%rax, -24(%rbp)
	.loc 1 256 20
	movq	-16(%rbp), %rax
	.loc 1 256 43
	movabsq	$131941395333120, %rdx
	addq	%rax, %rdx
	.loc 1 256 18
	movq	-72(%rbp), %rax
	movq	%rdx, (%rax)
	.loc 1 257 19
	movq	-24(%rbp), %rax
	.loc 1 257 42
	movabsq	$131941395333120, %rdx
	addq	%rax, %rdx
	.loc 1 257 17
	movq	-72(%rbp), %rax
	movq	%rdx, 8(%rax)
	.loc 1 258 17
	movq	-72(%rbp), %rax
	movabsq	$px_interrupt_enable_all_enabled, %rdx
	movl	(%rdx), %edx
	movl	%edx, 20(%rax)
	.loc 1 265 17
	movq	-72(%rbp), %rax
	movabsq	$px_interrupt_status_clear, %rdx
	movl	(%rdx), %edx
	movl	%edx, 16(%rax)
	.loc 1 272 21
	movl	-76(%rbp), %eax
	sall	$5, %eax
	movl	%eax, %eax
	.loc 1 271 69
	salq	$8, %rax
	movq	%rax, %rdx
	movq	-88(%rbp), %rax
	addq	%rdx, %rax
	addq	$40960, %rax
	.loc 1 270 22
	movq	%rax, -32(%rbp)
.LBB20:
	.loc 1 273 19
	movl	$0, -4(%rbp)
	.loc 1 273 5
	jmp	.L83
.L84:
	.loc 1 276 54 discriminator 3
	movl	-4(%rbp), %eax
	salq	$8, %rax
	movq	%rax, %rdx
	movq	-32(%rbp), %rax
	addq	%rdx, %rax
	.loc 1 276 13 discriminator 3
	movq	%rax, %rdx
	.loc 1 276 59 discriminator 3
	movabsq	$131941395333120, %rax
	addq	%rax, %rdx
	.loc 1 275 47 discriminator 3
	movq	-16(%rbp), %rax
	movl	-4(%rbp), %ecx
	salq	$5, %rcx
	addq	%rcx, %rax
	movq	%rdx, 8(%rax)
	.loc 1 277 26 discriminator 3
	movl	-76(%rbp), %edx
	movq	%rdx, %rax
	addq	%rax, %rax
	addq	%rdx, %rax
	salq	$8, %rax
	movabsq	$outstanding_request_queues, %rdx
	leaq	(%rax,%rdx), %rcx
	.loc 1 277 66 discriminator 3
	movl	-4(%rbp), %edx
	movq	%rdx, %rax
	addq	%rax, %rax
	addq	%rdx, %rax
	salq	$3, %rax
	.loc 1 277 9 discriminator 3
	addq	%rcx, %rax
	movq	%rax, %rdi
	movabsq	$sched_queue_init, %rax
	call	*%rax
.LVL39:
	.loc 1 273 62 discriminator 3
	addl	$1, -4(%rbp)
.L83:
	.loc 1 273 28 discriminator 1
	cmpl	$31, -4(%rbp)
	jbe	.L84
.LBE20:
	.loc 1 281 42
	movl	-76(%rbp), %edx
	movq	%rdx, %rax
	addq	%rax, %rax
	addq	%rdx, %rax
	salq	$3, %rax
	movq	%rax, %rdx
	.loc 1 281 5
	movabsq	$command_slot_queues, %rax
	addq	%rdx, %rax
	movq	%rax, %rdi
	movabsq	$sched_queue_init, %rax
	call	*%rax
.LVL40:
	.loc 1 284 13
	movq	-72(%rbp), %rax
	movl	36(%rax), %eax
	.loc 1 284 8
	cmpl	$257, %eax
	jne	.L85
.LBB21:
	.loc 1 286 9
	movabsq	$dbg_modes, %rax
	movq	(%rax), %rax
	andl	$16, %eax
	testq	%rax, %rax
	je	.L86
	.loc 1 286 9 is_stmt 0 discriminator 1
	movl	$16, %edi
	movabsq	$dbg_color, %rax
	call	*%rax
.LVL41:
	movq	%rax, %rsi
	movabsq	$.LC5, %rax
	movq	%rax, %rdi
	movl	$0, %eax
	movabsq	$dbg_print, %rdx
	call	*%rdx
.LVL42:
	movabsq	$curproc, %rax
	movq	(%rax), %rax
	testq	%rax, %rax
	je	.L87
	.loc 1 286 9 discriminator 2
	movabsq	$curproc, %rax
	movq	(%rax), %rax
	movl	(%rax), %eax
	cltq
	jmp	.L88
.L87:
	.loc 1 286 9 discriminator 3
	movq	$-1, %rax
.L88:
	.loc 1 286 9 discriminator 5
	movabsq	$curcore, %rdx
	movq	(%rdx), %rcx
	movq	%rax, %rdx
	movq	%rcx, %rsi
	movabsq	$.LC6, %rax
	movq	%rax, %rdi
	movl	$0, %eax
	movabsq	$dbg_print, %rcx
	call	*%rcx
.LVL43:
	movabsq	$__func__.2, %rax
	movq	%rax, %rcx
	movl	$286, %edx
	movabsq	$.LC2, %rax
	movq	%rax, %rsi
	movabsq	$.LC7, %rax
	movq	%rax, %rdi
	movl	$0, %eax
	movabsq	$dbg_print, %r8
	call	*%r8
.LVL44:
	movl	-76(%rbp), %eax
	movl	%eax, %esi
	movabsq	$.LC16, %rax
	movq	%rax, %rdi
	movl	$0, %eax
	movabsq	$dbg_print, %rdx
	call	*%rdx
.LVL45:
	movabsq	$.LC11, %rax
	movq	%rax, %rsi
	movabsq	$.LC5, %rax
	movq	%rax, %rdi
	movl	$0, %eax
	movabsq	$dbg_print, %rdx
	call	*%rdx
.LVL46:
.L86:
	.loc 1 287 28 is_stmt 1
	movl	$40, %edi
	movabsq	$kmalloc, %rax
	call	*%rax
.LVL47:
	movq	%rax, -40(%rbp)
	.loc 1 288 20
	movq	-40(%rbp), %rax
	movq	-72(%rbp), %rdx
	movq	%rdx, (%rax)
	.loc 1 289 28
	movl	-76(%rbp), %eax
	orb	$1, %ah
	movl	%eax, %edx
	.loc 1 289 26
	movq	-40(%rbp), %rax
	movl	%edx, 8(%rax)
	.loc 1 290 27
	movq	-40(%rbp), %rax
	movabsq	$sata_disk_ops, %rsi
	movq	%rsi, 16(%rax)
	.loc 1 291 9
	movq	-40(%rbp), %rax
	addq	$24, %rax
	movq	%rax, %rdi
	movabsq	$list_link_init, %rax
	call	*%rax
.LVL48:
	.loc 1 292 20
	movq	-40(%rbp), %rax
	addq	$8, %rax
	movq	%rax, %rdi
	movabsq	$blockdev_register, %rax
	call	*%rax
.LVL49:
	movq	%rax, -48(%rbp)
	.loc 1 293 9
	cmpq	$0, -48(%rbp)
	je	.L89
	.loc 1 293 9 is_stmt 0 discriminator 1
	movabsq	$.LC17, %r8
	movabsq	$.LC1, %rax
	movq	%rax, %rcx
	movabsq	$__func__.2, %rax
	movq	%rax, %rdx
	movl	$293, %esi
	movabsq	$.LC2, %rax
	movq	%rax, %rdi
	movl	$0, %eax
	movabsq	$dbg_panic, %r9
	call	*%r9
.LVL50:
.L85:
.LBE21:
	.loc 1 299 9 is_stmt 1
	movabsq	$dbg_modes, %rax
	movq	(%rax), %rax
	andl	$16, %eax
	testq	%rax, %rax
	je	.L89
	.loc 1 299 9 is_stmt 0 discriminator 1
	movl	$16, %edi
	movabsq	$dbg_color, %rax
	call	*%rax
.LVL51:
	movq	%rax, %rsi
	movabsq	$.LC5, %rax
	movq	%rax, %rdi
	movl	$0, %eax
	movabsq	$dbg_print, %rdx
	call	*%rdx
.LVL52:
	movabsq	$curproc, %rax
	movq	(%rax), %rax
	testq	%rax, %rax
	je	.L90
	.loc 1 299 9 discriminator 2
	movabsq	$curproc, %rax
	movq	(%rax), %rax
	movl	(%rax), %eax
	cltq
	jmp	.L91
.L90:
	.loc 1 299 9 discriminator 3
	movq	$-1, %rax
.L91:
	.loc 1 299 9 discriminator 5
	movabsq	$curcore, %rdx
	movq	(%rdx), %rcx
	movq	%rax, %rdx
	movq	%rcx, %rsi
	movabsq	$.LC6, %rax
	movq	%rax, %rdi
	movl	$0, %eax
	movabsq	$dbg_print, %rcx
	call	*%rcx
.LVL53:
	movabsq	$__func__.2, %rax
	movq	%rax, %rcx
	movl	$299, %edx
	movabsq	$.LC2, %rax
	movq	%rax, %rsi
	movabsq	$.LC7, %rax
	movq	%rax, %rdi
	movl	$0, %eax
	movabsq	$dbg_print, %r8
	call	*%r8
.LVL54:
	movq	-72(%rbp), %rax
	movl	36(%rax), %eax
	movl	%eax, %esi
	movabsq	$.LC18, %rax
	movq	%rax, %rdi
	movl	$0, %eax
	movabsq	$dbg_print, %rdx
	call	*%rdx
.LVL55:
	movabsq	$.LC11, %rax
	movq	%rax, %rsi
	movabsq	$.LC5, %rax
	movq	%rax, %rdi
	movl	$0, %eax
	movabsq	$dbg_print, %rdx
	call	*%rdx
.LVL56:
.L89:
	movq	-72(%rbp), %rax
	movq	%rax, -64(%rbp)
.LBB22:
.LBB23:
	.loc 1 217 11 is_stmt 1
	nop
.L92:
	.loc 1 217 12
	movq	-64(%rbp), %rax
	movzbl	25(%rax), %eax
	andl	$-128, %eax
	testb	%al, %al
	jne	.L92
	.loc 1 219 22
	movq	-64(%rbp), %rax
	movzbl	24(%rax), %edx
	orl	$16, %edx
	movb	%dl, 24(%rax)
	.loc 1 220 21
	movq	-64(%rbp), %rax
	movzbl	24(%rax), %edx
	orl	$1, %edx
	movb	%dl, 24(%rax)
	.loc 1 221 1
	nop
.LBE23:
.LBE22:
	.loc 1 307 1
	nop
	leave
	.cfi_restore 6
	.cfi_def_cfa 7, 8
	ret
	.cfi_endproc
.LFE20:
	.size	ahci_initialize_port, .-ahci_initialize_port
	.section	.rodata
	.align 8
.LC19:
	.string	"dev->standard.capabilities_ptr & PCI_CAPABILITY_PTR_MASK"
	.align 8
.LC20:
	.string	"cap->next_cap && \"couldn't find msi control for ahci device\""
	.align 8
.LC21:
	.string	"dev && \"Could not find AHCI Controller\""
.LC22:
	.string	"Found AHCI Controller\n"
.LC23:
	.string	"ahci_base"
.LC24:
	.string	"hba->ghc.ghc.ae"
.LC25:
	.string	"true"
.LC26:
	.string	"false"
.LC27:
	.string	"ahci ncq supported: %s\n"
.LC28:
	.string	"ports_implemented"
	.text
	.globl	ahci_initialize_hba
	.type	ahci_initialize_hba, @function
ahci_initialize_hba:
.LFB21:
	.loc 1 312 1
	.cfi_startproc
	pushq	%rbp
	.cfi_def_cfa_offset 16
	.cfi_offset 6, -16
	movq	%rsp, %rbp
	.cfi_def_cfa_register 6
	subq	$48, %rsp
	.loc 1 313 5
	movabsq	$because_qemu_doesnt_emulate_ahci_ncq_correctly, %rax
	movq	%rax, %rdi
	movabsq	$kmutex_init, %rax
	call	*%rax
.LVL57:
	.loc 1 317 9
	movl	$1, %edx
	movl	$6, %esi
	movl	$1, %edi
	movabsq	$pcie_lookup, %rax
	call	*%rax
.LVL58:
	movq	%rax, -24(%rbp)
	.loc 1 326 5
	movq	-24(%rbp), %rax
	movzbl	52(%rax), %eax
	movzbl	%al, %eax
	andl	$252, %eax
	testl	%eax, %eax
	jne	.L94
	.loc 1 326 5 is_stmt 0 discriminator 1
	movabsq	$.LC19, %r8
	movabsq	$.LC1, %rax
	movq	%rax, %rcx
	movabsq	$__func__.1, %rax
	movq	%rax, %rdx
	movl	$326, %esi
	movabsq	$.LC2, %rax
	movq	%rax, %rdi
	movl	$0, %eax
	movabsq	$dbg_panic, %r9
	call	*%r9
.LVL59:
.L94:
	.loc 1 328 61 is_stmt 1
	movq	-24(%rbp), %rax
	movzbl	52(%rax), %eax
	.loc 1 328 79
	movzbl	%al, %eax
	andl	$252, %eax
	movq	%rax, %rdx
	.loc 1 328 30
	movq	-24(%rbp), %rax
	.loc 1 328 45
	addq	%rdx, %rax
	.loc 1 327 23
	movq	%rax, -8(%rbp)
	.loc 1 330 11
	jmp	.L95
.L97:
	.loc 1 332 9
	movq	-8(%rbp), %rax
	movzbl	1(%rax), %eax
	testb	%al, %al
	jne	.L96
	.loc 1 332 9 is_stmt 0 discriminator 1
	movabsq	$.LC20, %r8
	movabsq	$.LC1, %rax
	movq	%rax, %rcx
	movabsq	$__func__.1, %rax
	movq	%rax, %rdx
	movl	$332, %esi
	movabsq	$.LC2, %rax
	movq	%rax, %rdi
	movl	$0, %eax
	movabsq	$dbg_panic, %r9
	call	*%r9
.LVL60:
.L96:
	.loc 1 334 40 is_stmt 1
	movq	-8(%rbp), %rax
	movzbl	1(%rax), %eax
	.loc 1 334 51
	movzbl	%al, %eax
	andl	$252, %eax
	movq	%rax, %rdx
	.loc 1 333 36
	movq	-24(%rbp), %rax
	.loc 1 333 51
	addq	%rdx, %rax
	.loc 1 333 13
	movq	%rax, -8(%rbp)
.L95:
	.loc 1 330 15
	movq	-8(%rbp), %rax
	movzbl	(%rax), %eax
	.loc 1 330 20
	cmpb	$5, %al
	jne	.L97
	.loc 1 336 23
	movq	-8(%rbp), %rax
	movq	%rax, -32(%rbp)
	.loc 1 339 27
	movq	-32(%rbp), %rax
	movzbl	2(%rax), %edx
	orl	$1, %edx
	movb	%dl, 2(%rax)
	.loc 1 348 9
	movq	-32(%rbp), %rax
	movzbl	2(%rax), %eax
	andl	$-128, %eax
	.loc 1 348 8
	testb	%al, %al
	je	.L98
	.loc 1 350 41
	movq	-32(%rbp), %rax
	movl	$4276097036, %esi
	movq	%rsi, 4(%rax)
	.loc 1 351 41
	movq	-32(%rbp), %rax
	movw	$464, 12(%rax)
	jmp	.L99
.L98:
	.loc 1 355 41
	movq	-32(%rbp), %rax
	movl	$-18870260, 4(%rax)
	.loc 1 356 41
	movq	-32(%rbp), %rax
	movw	$464, 8(%rax)
.L99:
	.loc 1 359 5
	cmpq	$0, -24(%rbp)
	jne	.L100
	.loc 1 359 5 is_stmt 0 discriminator 1
	movabsq	$.LC21, %r8
	movabsq	$.LC1, %rax
	movq	%rax, %rcx
	movabsq	$__func__.1, %rax
	movq	%rax, %rdx
	movl	$359, %esi
	movabsq	$.LC2, %rax
	movq	%rax, %rdi
	movl	$0, %eax
	movabsq	$dbg_panic, %r9
	call	*%r9
.LVL61:
.L100:
	.loc 1 360 5 is_stmt 1
	movabsq	$dbg_modes, %rax
	movq	(%rax), %rax
	andl	$16, %eax
	testq	%rax, %rax
	je	.L101
	.loc 1 360 5 is_stmt 0 discriminator 1
	movl	$16, %edi
	movabsq	$dbg_color, %rax
	call	*%rax
.LVL62:
	movq	%rax, %rsi
	movabsq	$.LC5, %rax
	movq	%rax, %rdi
	movl	$0, %eax
	movabsq	$dbg_print, %rdx
	call	*%rdx
.LVL63:
	movabsq	$curproc, %rax
	movq	(%rax), %rax
	testq	%rax, %rax
	je	.L102
	.loc 1 360 5 discriminator 2
	movabsq	$curproc, %rax
	movq	(%rax), %rax
	movl	(%rax), %eax
	cltq
	jmp	.L103
.L102:
	.loc 1 360 5 discriminator 3
	movq	$-1, %rax
.L103:
	.loc 1 360 5 discriminator 5
	movabsq	$curcore, %rdx
	movq	(%rdx), %rcx
	movq	%rax, %rdx
	movq	%rcx, %rsi
	movabsq	$.LC6, %rax
	movq	%rax, %rdi
	movl	$0, %eax
	movabsq	$dbg_print, %rcx
	call	*%rcx
.LVL64:
	movabsq	$__func__.1, %rax
	movq	%rax, %rcx
	movl	$360, %edx
	movabsq	$.LC2, %rax
	movq	%rax, %rsi
	movabsq	$.LC7, %rax
	movq	%rax, %rdi
	movl	$0, %eax
	movabsq	$dbg_print, %r8
	call	*%r8
.LVL65:
	movabsq	$.LC22, %rax
	movq	%rax, %rdi
	movl	$0, %eax
	movabsq	$dbg_print, %rdx
	call	*%rdx
.LVL66:
	movabsq	$.LC11, %rax
	movq	%rax, %rsi
	movabsq	$.LC5, %rax
	movq	%rax, %rdi
	movl	$0, %eax
	movabsq	$dbg_print, %rdx
	call	*%rdx
.LVL67:
.L101:
	.loc 1 364 52 is_stmt 1
	movq	-24(%rbp), %rax
	movl	36(%rax), %eax
	movl	%eax, %edx
	.loc 1 364 33
	movabsq	$-131941395333120, %rax
	addq	%rdx, %rax
	.loc 1 364 11
	movq	%rax, %rdx
	.loc 1 364 9
	movabsq	$hba, %rax
	movq	%rdx, (%rax)
	.loc 1 367 5
	movabsq	$hba, %rax
	movq	(%rax), %rax
	movl	$4352, %esi
	movq	%rax, %rdi
	movabsq	$ensure_mapped, %rax
	call	*%rax
.LVL68:
	.loc 1 375 38
	movl	$74, %edi
	movabsq	$page_alloc_n, %rax
	call	*%rax
.LVL69:
	.loc 1 375 15
	movq	%rax, -40(%rbp)
	.loc 1 376 5
	movq	-40(%rbp), %rax
	movl	$303104, %edx
	movl	$0, %esi
	movq	%rax, %rdi
	movabsq	$memset, %rax
	call	*%rax
.LVL70:
	.loc 1 378 5
	cmpq	$0, -40(%rbp)
	jne	.L104
	.loc 1 378 5 is_stmt 0 discriminator 1
	movabsq	$.LC23, %r8
	movabsq	$.LC1, %rax
	movq	%rax, %rcx
	movabsq	$__func__.1, %rax
	movq	%rax, %rdx
	movl	$378, %esi
	movabsq	$.LC2, %rax
	movq	%rax, %rdi
	movl	$0, %eax
	movabsq	$dbg_panic, %r9
	call	*%r9
.LVL71:
.L104:
	.loc 1 383 5 is_stmt 1
	movabsq	$hba, %rax
	movq	(%rax), %rax
	movzbl	7(%rax), %eax
	andl	$-128, %eax
	testb	%al, %al
	jne	.L105
	.loc 1 383 5 is_stmt 0 discriminator 1
	movabsq	$.LC24, %r8
	movabsq	$.LC1, %rax
	movq	%rax, %rcx
	movabsq	$__func__.1, %rax
	movq	%rax, %rdx
	movl	$383, %esi
	movabsq	$.LC2, %rax
	movq	%rax, %rdi
	movl	$0, %eax
	movabsq	$dbg_panic, %r9
	call	*%r9
.LVL72:
.L105:
	.loc 1 386 8 is_stmt 1
	movabsq	$hba, %rax
	movq	(%rax), %rax
	.loc 1 386 21
	movzbl	4(%rax), %edx
	andl	$-3, %edx
	movb	%dl, 4(%rax)
	.loc 1 388 5
	movabsq	$dbg_modes, %rax
	movq	(%rax), %rax
	andl	$16, %eax
	testq	%rax, %rax
	je	.L106
	.loc 1 388 5 is_stmt 0 discriminator 1
	movl	$16, %edi
	movabsq	$dbg_color, %rax
	call	*%rax
.LVL73:
	movq	%rax, %rsi
	movabsq	$.LC5, %rax
	movq	%rax, %rdi
	movl	$0, %eax
	movabsq	$dbg_print, %rdx
	call	*%rdx
.LVL74:
	movabsq	$curproc, %rax
	movq	(%rax), %rax
	testq	%rax, %rax
	je	.L107
	.loc 1 388 5 discriminator 2
	movabsq	$curproc, %rax
	movq	(%rax), %rax
	movl	(%rax), %eax
	cltq
	jmp	.L108
.L107:
	.loc 1 388 5 discriminator 3
	movq	$-1, %rax
.L108:
	.loc 1 388 5 discriminator 5
	movabsq	$curcore, %rdx
	movq	(%rdx), %rcx
	movq	%rax, %rdx
	movq	%rcx, %rsi
	movabsq	$.LC6, %rax
	movq	%rax, %rdi
	movl	$0, %eax
	movabsq	$dbg_print, %rcx
	call	*%rcx
.LVL75:
	movabsq	$__func__.1, %rax
	movq	%rax, %rcx
	movl	$388, %edx
	movabsq	$.LC2, %rax
	movq	%rax, %rsi
	movabsq	$.LC7, %rax
	movq	%rax, %rdi
	movl	$0, %eax
	movabsq	$dbg_print, %r8
	call	*%r8
.LVL76:
	movabsq	$hba, %rax
	movq	(%rax), %rax
	movzbl	3(%rax), %eax
	andl	$64, %eax
	testb	%al, %al
	je	.L109
	.loc 1 388 5 discriminator 6
	movabsq	$.LC25, %rax
	jmp	.L110
.L109:
	.loc 1 388 5 discriminator 7
	movabsq	$.LC26, %rax
.L110:
	.loc 1 388 5 discriminator 9
	movq	%rax, %rsi
	movabsq	$.LC27, %rax
	movq	%rax, %rdi
	movl	$0, %eax
	movabsq	$dbg_print, %rdx
	call	*%rdx
.LVL77:
	movabsq	$.LC11, %rax
	movq	%rax, %rsi
	movabsq	$.LC5, %rax
	movq	%rax, %rdi
	movl	$0, %eax
	movabsq	$dbg_print, %rdx
	call	*%rdx
.LVL78:
.L106:
	.loc 1 392 37 is_stmt 1
	movabsq	$hba, %rax
	movq	(%rax), %rax
	.loc 1 392 14
	movl	12(%rax), %eax
	movl	%eax, -12(%rbp)
	.loc 1 393 5
	cmpl	$0, -12(%rbp)
	jne	.L112
	.loc 1 393 5 is_stmt 0 discriminator 1
	movabsq	$.LC28, %r8
	movabsq	$.LC1, %rax
	movq	%rax, %rcx
	movabsq	$__func__.1, %rax
	movq	%rax, %rdx
	movl	$393, %esi
	movabsq	$.LC2, %rax
	movq	%rax, %rdi
	movl	$0, %eax
	movabsq	$dbg_panic, %r9
	call	*%r9
.LVL79:
.L113:
.LBB24:
	.loc 1 396 32 is_stmt 1
	xorl	%eax, %eax
	rep bsfl	-12(%rbp), %eax
	.loc 1 396 18
	movl	%eax, -44(%rbp)
	.loc 1 397 34
	movl	-44(%rbp), %eax
	movl	$1, %edx
	movl	%eax, %ecx
	sall	%cl, %edx
	movl	%edx, %eax
	.loc 1 397 30
	notl	%eax
	.loc 1 397 27
	andl	%eax, -12(%rbp)
	.loc 1 398 33
	movabsq	$hba, %rax
	movq	(%rax), %rax
	.loc 1 398 30
	leaq	256(%rax), %rdx
	.loc 1 398 41
	movl	-44(%rbp), %eax
	salq	$7, %rax
	.loc 1 398 9
	leaq	(%rdx,%rax), %rcx
	movq	-40(%rbp), %rdx
	movl	-44(%rbp), %eax
	movl	%eax, %esi
	movq	%rcx, %rdi
	movabsq	$ahci_initialize_port, %rax
	call	*%rax
.LVL80:
.L112:
.LBE24:
	.loc 1 394 12
	cmpl	$0, -12(%rbp)
	jne	.L113
	.loc 1 402 8
	movabsq	$hba, %rax
	movq	(%rax), %rax
	.loc 1 402 17
	movl	$-1, 8(%rax)
	.loc 1 405 8
	movabsq	$hba, %rax
	movq	(%rax), %rax
	.loc 1 405 21
	movzbl	4(%rax), %edx
	orl	$2, %edx
	movb	%dl, 4(%rax)
	.loc 1 406 1
	nop
	leave
	.cfi_restore 6
	.cfi_def_cfa 7, 8
	ret
	.cfi_endproc
.LFE21:
	.size	ahci_initialize_hba, .-ahci_initialize_hba
	.section	.rodata
.LC29:
	.string	"port->px_is.bits.sdbs"
.LC30:
	.string	"port->px_is.bits.dhrs"
	.text
	.type	ahci_interrupt_handler, @function
ahci_interrupt_handler:
.LFB22:
	.loc 1 411 1
	.cfi_startproc
	pushq	%rbp
	.cfi_def_cfa_offset 16
	.cfi_offset 6, -16
	movq	%rsp, %rbp
	.cfi_def_cfa_register 6
	subq	$48, %rsp
	movq	%rdi, -40(%rbp)
	.loc 1 413 11
	jmp	.L115
.L124:
.LBB25:
	.loc 1 416 48
	movabsq	$hba, %rax
	movq	(%rax), %rax
	.loc 1 416 31
	movl	8(%rax), %eax
	rep bsfl	%eax, %eax
	.loc 1 416 18
	movl	%eax, -8(%rbp)
	.loc 1 419 31
	movabsq	$hba, %rax
	movq	(%rax), %rax
	.loc 1 419 28
	leaq	256(%rax), %rdx
	.loc 1 419 39
	movl	-8(%rbp), %eax
	salq	$7, %rax
	.loc 1 419 21
	addq	%rdx, %rax
	movq	%rax, -16(%rbp)
	.loc 1 431 16
	movabsq	$hba, %rax
	movq	(%rax), %rax
	.loc 1 431 13
	movzbl	3(%rax), %eax
	andl	$64, %eax
	.loc 1 431 12
	testb	%al, %al
	je	.L116
	.loc 1 433 13
	movq	-16(%rbp), %rax
	movzbl	16(%rax), %eax
	andl	$8, %eax
	testb	%al, %al
	jne	.L117
	.loc 1 433 13 is_stmt 0 discriminator 1
	movabsq	$.LC29, %r8
	movabsq	$.LC1, %rax
	movq	%rax, %rcx
	movabsq	$__func__.0, %rax
	movq	%rax, %rdx
	movl	$433, %esi
	movabsq	$.LC2, %rax
	movq	%rax, %rdi
	movl	$0, %eax
	movabsq	$dbg_panic, %r9
	call	*%r9
.LVL81:
.L117:
	.loc 1 434 35 is_stmt 1
	movq	-16(%rbp), %rax
	movzbl	16(%rax), %edx
	orl	$8, %edx
	movb	%dl, 16(%rax)
	jmp	.L118
.L116:
	.loc 1 438 13
	movq	-16(%rbp), %rax
	movzbl	16(%rax), %eax
	andl	$1, %eax
	testb	%al, %al
	jne	.L119
	.loc 1 438 13 is_stmt 0 discriminator 1
	movabsq	$.LC30, %r8
	movabsq	$.LC1, %rax
	movq	%rax, %rcx
	movabsq	$__func__.0, %rax
	movq	%rax, %rdx
	movl	$438, %esi
	movabsq	$.LC2, %rax
	movq	%rax, %rdi
	movl	$0, %eax
	movabsq	$dbg_panic, %r9
	call	*%r9
.LVL82:
.L119:
	.loc 1 439 35 is_stmt 1
	movq	-16(%rbp), %rax
	movzbl	16(%rax), %edx
	orl	$1, %edx
	movb	%dl, 16(%rax)
.L118:
	.loc 1 449 12
	movabsq	$hba, %rax
	movq	(%rax), %rax
	.loc 1 449 17
	movl	8(%rax), %edx
	.loc 1 449 27
	movl	-8(%rbp), %eax
	movl	$1, %esi
	movl	%eax, %ecx
	sall	%cl, %esi
	movl	%esi, %eax
	movl	%eax, %ecx
	.loc 1 449 12
	movabsq	$hba, %rax
	movq	(%rax), %rax
	.loc 1 449 21
	andl	%ecx, %edx
	movl	%edx, 8(%rax)
	.loc 1 454 30
	movabsq	$hba, %rax
	movq	(%rax), %rax
	.loc 1 454 45
	movzbl	3(%rax), %eax
	andl	$64, %eax
	.loc 1 454 61
	testb	%al, %al
	je	.L120
	.loc 1 454 61 is_stmt 0 discriminator 1
	movq	-16(%rbp), %rax
	movl	52(%rax), %eax
	jmp	.L121
.L120:
	.loc 1 454 61 discriminator 2
	movq	-16(%rbp), %rax
	movl	56(%rax), %eax
.L121:
	.loc 1 454 18 is_stmt 1 discriminator 4
	movl	%eax, -20(%rbp)
	.loc 1 462 50 discriminator 4
	movabsq	$outstanding_requests, %rdx
	movl	-8(%rbp), %eax
	movl	(%rdx,%rax,4), %eax
	.loc 1 462 63 discriminator 4
	movl	-20(%rbp), %edx
	notl	%edx
	.loc 1 462 18 discriminator 4
	andl	%edx, %eax
	movl	%eax, -4(%rbp)
	.loc 1 465 15 discriminator 4
	jmp	.L122
.L123:
.LBB26:
	.loc 1 467 29
	xorl	%eax, %eax
	rep bsfl	-4(%rbp), %eax
	.loc 1 467 22
	movl	%eax, -24(%rbp)
	.loc 1 471 13
	movl	-24(%rbp), %eax
	movq	%rax, %rdx
	addq	%rdx, %rdx
	addq	%rax, %rdx
	leaq	0(,%rdx,8), %rax
	movq	%rax, %rdx
	movl	-8(%rbp), %ecx
	movq	%rcx, %rax
	addq	%rax, %rax
	addq	%rcx, %rax
	salq	$8, %rax
	addq	%rax, %rdx
	movabsq	$outstanding_request_queues, %rax
	addq	%rax, %rdx
	leaq	-32(%rbp), %rax
	movq	%rax, %rsi
	movq	%rdx, %rdi
	movabsq	$sched_wakeup_on, %rax
	call	*%rax
.LVL83:
	.loc 1 475 30
	movl	-24(%rbp), %eax
	movl	$1, %edx
	movl	%eax, %ecx
	sall	%cl, %edx
	movl	%edx, %eax
	.loc 1 475 26
	notl	%eax
	.loc 1 475 23
	andl	%eax, -4(%rbp)
	.loc 1 476 33
	movabsq	$outstanding_requests, %rdx
	movl	-8(%rbp), %eax
	movl	(%rdx,%rax,4), %edx
	.loc 1 476 53
	movl	-24(%rbp), %eax
	movl	$1, %esi
	movl	%eax, %ecx
	sall	%cl, %esi
	movl	%esi, %eax
	.loc 1 476 49
	notl	%eax
	.loc 1 476 46
	movl	%edx, %ecx
	andl	%eax, %ecx
	movabsq	$outstanding_requests, %rdx
	movl	-8(%rbp), %eax
	movl	%ecx, (%rdx,%rax,4)
.L122:
.LBE26:
	.loc 1 465 16
	cmpl	$0, -4(%rbp)
	jne	.L123
.L115:
.LBE25:
	.loc 1 413 15
	movabsq	$hba, %rax
	movq	(%rax), %rax
	.loc 1 413 20
	movl	8(%rax), %eax
	.loc 1 413 12
	testl	%eax, %eax
	jne	.L124
	.loc 1 482 12
	movl	$0, %eax
	.loc 1 483 1
	leave
	.cfi_restore 6
	.cfi_def_cfa 7, 8
	ret
	.cfi_endproc
.LFE22:
	.size	ahci_interrupt_handler, .-ahci_interrupt_handler
	.globl	sata_init
	.type	sata_init, @function
sata_init:
.LFB23:
	.loc 1 486 1
	.cfi_startproc
	pushq	%rbp
	.cfi_def_cfa_offset 16
	.cfi_offset 6, -16
	movq	%rsp, %rbp
	.cfi_def_cfa_register 6
	.loc 1 487 5
	movabsq	$ahci_interrupt_handler, %rax
	movq	%rax, %rsi
	movl	$208, %edi
	movabsq	$intr_register, %rax
	call	*%rax
.LVL84:
	.loc 1 488 5
	movl	$0, %eax
	movabsq	$ahci_initialize_hba, %rdx
	call	*%rdx
.LVL85:
	.loc 1 489 1
	nop
	popq	%rbp
	.cfi_restore 6
	.cfi_def_cfa 7, 8
	ret
	.cfi_endproc
.LFE23:
	.size	sata_init, .-sata_init
	.globl	sata_read_block
	.type	sata_read_block, @function
sata_read_block:
.LFB24:
	.loc 1 508 1
	.cfi_startproc
	pushq	%rbp
	.cfi_def_cfa_offset 16
	.cfi_offset 6, -16
	movq	%rsp, %rbp
	.cfi_def_cfa_register 6
	subq	$32, %rsp
	movq	%rdi, -8(%rbp)
	movq	%rsi, -16(%rbp)
	movl	%edx, -20(%rbp)
	movq	%rcx, -32(%rbp)
	.loc 1 510 21
	movq	-32(%rbp), %rax
	salq	$3, %rax
	.loc 1 510 8
	cmpq	$65535, %rax
	jbe	.L128
	.loc 1 512 16
	movq	$-5, %rax
	jmp	.L129
.L128:
	.loc 1 516 9
	movq	-32(%rbp), %rax
	sall	$3, %eax
	.loc 1 514 12
	movzwl	%ax, %edx
	.loc 1 515 45
	movl	-20(%rbp), %eax
	sall	$3, %eax
	.loc 1 514 12
	movl	%eax, %esi
	.loc 1 515 9
	movq	-8(%rbp), %rax
	subq	$8, %rax
	.loc 1 514 12
	movq	(%rax), %rax
	movq	-16(%rbp), %rcx
	movl	$0, %r8d
	movq	%rax, %rdi
	movabsq	$ahci_do_operation, %rax
	call	*%rax
.LVL86:
.L129:
	.loc 1 519 1
	leave
	.cfi_restore 6
	.cfi_def_cfa 7, 8
	ret
	.cfi_endproc
.LFE24:
	.size	sata_read_block, .-sata_read_block
	.globl	sata_write_block
	.type	sata_write_block, @function
sata_write_block:
.LFB25:
	.loc 1 535 1
	.cfi_startproc
	pushq	%rbp
	.cfi_def_cfa_offset 16
	.cfi_offset 6, -16
	movq	%rsp, %rbp
	.cfi_def_cfa_register 6
	subq	$32, %rsp
	movq	%rdi, -8(%rbp)
	movq	%rsi, -16(%rbp)
	movl	%edx, -20(%rbp)
	movq	%rcx, -32(%rbp)
	.loc 1 537 21
	movq	-32(%rbp), %rax
	salq	$3, %rax
	.loc 1 537 8
	cmpq	$65535, %rax
	jbe	.L131
	.loc 1 539 16
	movq	$-5, %rax
	jmp	.L132
.L131:
	.loc 1 543 9
	movq	-32(%rbp), %rax
	sall	$3, %eax
	.loc 1 541 12
	movzwl	%ax, %edx
	.loc 1 542 45
	movl	-20(%rbp), %eax
	sall	$3, %eax
	.loc 1 541 12
	movl	%eax, %esi
	.loc 1 542 9
	movq	-8(%rbp), %rax
	subq	$8, %rax
	.loc 1 541 12
	movq	(%rax), %rax
	movq	-16(%rbp), %rcx
	movl	$1, %r8d
	movq	%rax, %rdi
	movabsq	$ahci_do_operation, %rax
	call	*%rax
.LVL87:
.L132:
	.loc 1 546 1
	leave
	.cfi_restore 6
	.cfi_def_cfa 7, 8
	ret
	.cfi_endproc
.LFE25:
	.size	sata_write_block, .-sata_write_block
	.section	.rodata
	.align 16
	.type	__func__.3, @object
	.size	__func__.3, 18
__func__.3:
	.string	"ahci_do_operation"
	.align 16
	.type	__func__.2, @object
	.size	__func__.2, 21
__func__.2:
	.string	"ahci_initialize_port"
	.align 16
	.type	__func__.1, @object
	.size	__func__.1, 20
__func__.1:
	.string	"ahci_initialize_hba"
	.align 16
	.type	__func__.0, @object
	.size	__func__.0, 23
__func__.0:
	.string	"ahci_interrupt_handler"
	.text
.Letext0:
	.file 5 "include/types.h"
	.file 6 "include/util/list.h"
	.file 7 "include/proc/sched.h"
	.file 8 "include/proc/kmutex.h"
	.file 9 "include/proc/kthread.h"
	.file 10 "include/drivers/blockdev.h"
	.file 11 "include/drivers/disk/ahci.h"
	.file 12 "include/drivers/disk/sata.h"
	.file 13 "include/drivers/pcie.h"
	.file 14 "include/vm/vmmap.h"
	.file 15 "include/proc/proc.h"
	.file 16 "include/mm/pagetable.h"
	.file 17 "include/proc/context.h"
	.file 18 "include/proc/core.h"
	.file 19 "include/globals.h"
	.file 20 "include/mm/page.h"
	.file 21 "include/mm/kmalloc.h"
	.file 22 "include/util/string.h"
	.section	.note.GNU-stack,"",@progbits
