	.file	"kmutex.c"
	.text
.Ltext0:
	.file 1 "proc/kmutex.c"
	.type	equals, @function
equals:
.LFB0:
	.file 2 "include/util/debug.h"
	.loc 2 280 1
	.cfi_startproc
	pushq	%rbp
	.cfi_def_cfa_offset 16
	.cfi_offset 6, -16
	movq	%rsp, %rbp
	.cfi_def_cfa_register 6
	subq	$16, %rsp
	movq	%rdi, -8(%rbp)
	movq	%rsi, -16(%rbp)
	.loc 2 281 14
	movq	-8(%rbp), %rax
	cmpq	-16(%rbp), %rax
	sete	%al
	movzbl	%al, %eax
	.loc 2 282 1
	leave
	.cfi_restore 6
	.cfi_def_cfa 7, 8
	ret
	.cfi_endproc
.LFE0:
	.size	equals, .-equals
	.type	notequals, @function
notequals:
.LFB1:
	.loc 2 284 39
	.cfi_startproc
	pushq	%rbp
	.cfi_def_cfa_offset 16
	.cfi_offset 6, -16
	movq	%rsp, %rbp
	.cfi_def_cfa_register 6
	subq	$16, %rsp
	movq	%rdi, -8(%rbp)
	movq	%rsi, -16(%rbp)
	.loc 2 284 50
	movq	-8(%rbp), %rax
	cmpq	-16(%rbp), %rax
	setne	%al
	movzbl	%al, %eax
	.loc 2 284 56
	leave
	.cfi_restore 6
	.cfi_def_cfa 7, 8
	ret
	.cfi_endproc
.LFE1:
	.size	notequals, .-notequals
	.type	lessthan, @function
lessthan:
.LFB2:
	.loc 2 286 38
	.cfi_startproc
	pushq	%rbp
	.cfi_def_cfa_offset 16
	.cfi_offset 6, -16
	movq	%rsp, %rbp
	.cfi_def_cfa_register 6
	subq	$16, %rsp
	movq	%rdi, -8(%rbp)
	movq	%rsi, -16(%rbp)
	.loc 2 286 49
	movq	-8(%rbp), %rax
	cmpq	-16(%rbp), %rax
	setl	%al
	movzbl	%al, %eax
	.loc 2 286 54
	leave
	.cfi_restore 6
	.cfi_def_cfa 7, 8
	ret
	.cfi_endproc
.LFE2:
	.size	lessthan, .-lessthan
	.type	greaterthan, @function
greaterthan:
.LFB3:
	.loc 2 288 41
	.cfi_startproc
	pushq	%rbp
	.cfi_def_cfa_offset 16
	.cfi_offset 6, -16
	movq	%rsp, %rbp
	.cfi_def_cfa_register 6
	subq	$16, %rsp
	movq	%rdi, -8(%rbp)
	movq	%rsi, -16(%rbp)
	.loc 2 288 52
	movq	-8(%rbp), %rax
	cmpq	-16(%rbp), %rax
	setg	%al
	movzbl	%al, %eax
	.loc 2 288 57
	leave
	.cfi_restore 6
	.cfi_def_cfa 7, 8
	ret
	.cfi_endproc
.LFE3:
	.size	greaterthan, .-greaterthan
	.type	lessthaneq, @function
lessthaneq:
.LFB4:
	.loc 2 290 40
	.cfi_startproc
	pushq	%rbp
	.cfi_def_cfa_offset 16
	.cfi_offset 6, -16
	movq	%rsp, %rbp
	.cfi_def_cfa_register 6
	subq	$16, %rsp
	movq	%rdi, -8(%rbp)
	movq	%rsi, -16(%rbp)
	.loc 2 290 51
	movq	-8(%rbp), %rax
	cmpq	-16(%rbp), %rax
	setle	%al
	movzbl	%al, %eax
	.loc 2 290 57
	leave
	.cfi_restore 6
	.cfi_def_cfa 7, 8
	ret
	.cfi_endproc
.LFE4:
	.size	lessthaneq, .-lessthaneq
	.type	greaterthaneq, @function
greaterthaneq:
.LFB5:
	.loc 2 292 43
	.cfi_startproc
	pushq	%rbp
	.cfi_def_cfa_offset 16
	.cfi_offset 6, -16
	movq	%rsp, %rbp
	.cfi_def_cfa_register 6
	subq	$16, %rsp
	movq	%rdi, -8(%rbp)
	movq	%rsi, -16(%rbp)
	.loc 2 292 54
	movq	-8(%rbp), %rax
	cmpq	-16(%rbp), %rax
	setge	%al
	movzbl	%al, %eax
	.loc 2 292 60
	leave
	.cfi_restore 6
	.cfi_def_cfa 7, 8
	ret
	.cfi_endproc
.LFE5:
	.size	greaterthaneq, .-greaterthaneq
	.type	intr_enabled, @function
intr_enabled:
.LFB6:
	.file 3 "include/main/interrupt.h"
	.loc 3 82 1
	.cfi_startproc
	pushq	%rbp
	.cfi_def_cfa_offset 16
	.cfi_offset 6, -16
	movq	%rsp, %rbp
	.cfi_def_cfa_register 6
	subq	$16, %rsp
	.loc 3 84 5
#APP
# 84 "include/main/interrupt.h" 1
	pushf; pop %rax; and $0x200, %rax;
# 0 "" 2
#NO_APP
	movq	%rax, -8(%rbp)
	.loc 3 86 12
	movq	-8(%rbp), %rax
	.loc 3 87 1
	leave
	.cfi_restore 6
	.cfi_def_cfa 7, 8
	ret
	.cfi_endproc
.LFE6:
	.size	intr_enabled, .-intr_enabled
	.type	intr_enable, @function
intr_enable:
.LFB7:
	.loc 3 89 34
	.cfi_startproc
	pushq	%rbp
	.cfi_def_cfa_offset 16
	.cfi_offset 6, -16
	movq	%rsp, %rbp
	.cfi_def_cfa_register 6
	.loc 3 89 36
#APP
# 89 "include/main/interrupt.h" 1
	sti
# 0 "" 2
	.loc 3 89 61
#NO_APP
	nop
	popq	%rbp
	.cfi_restore 6
	.cfi_def_cfa 7, 8
	ret
	.cfi_endproc
.LFE7:
	.size	intr_enable, .-intr_enable
	.type	intr_disable, @function
intr_disable:
.LFB8:
	.loc 3 91 35
	.cfi_startproc
	pushq	%rbp
	.cfi_def_cfa_offset 16
	.cfi_offset 6, -16
	movq	%rsp, %rbp
	.cfi_def_cfa_register 6
	.loc 3 91 37
#APP
# 91 "include/main/interrupt.h" 1
	cli
# 0 "" 2
	.loc 3 91 62
#NO_APP
	nop
	popq	%rbp
	.cfi_restore 6
	.cfi_def_cfa 7, 8
	ret
	.cfi_endproc
.LFE8:
	.size	intr_disable, .-intr_disable
	.type	intr_wait, @function
intr_wait:
.LFB9:
	.loc 3 98 1
	.cfi_startproc
	pushq	%rbp
	.cfi_def_cfa_offset 16
	.cfi_offset 6, -16
	movq	%rsp, %rbp
	.cfi_def_cfa_register 6
	.loc 3 105 5
#APP
# 105 "include/main/interrupt.h" 1
	sti; hlt
# 0 "" 2
	.loc 3 106 1
#NO_APP
	nop
	popq	%rbp
	.cfi_restore 6
	.cfi_def_cfa 7, 8
	ret
	.cfi_endproc
.LFE9:
	.size	intr_wait, .-intr_wait
	.section	.rodata
	.align 8
.LC0:
	.string	"detected deadlock between P%d and P%d (mutexes 0x%p, 0x%p)\n"
.LC1:
	.string	"proc/kmutex.c"
	.text
	.globl	detect_deadlocks
	.type	detect_deadlocks, @function
detect_deadlocks:
.LFB10:
	.loc 1 20 1
	.cfi_startproc
	pushq	%rbp
	.cfi_def_cfa_offset 16
	.cfi_offset 6, -16
	movq	%rsp, %rbp
	.cfi_def_cfa_register 6
	subq	$48, %rsp
	movq	%rdi, -40(%rbp)
.LBB8:
	.loc 1 22 5
	movabsq	$curthr, %rax
	movq	(%rax), %rax
	movq	136(%rax), %rax
	subq	$32, %rax
	movq	%rax, -8(%rbp)
	movq	-8(%rbp), %rax
	movq	32(%rax), %rax
	subq	$32, %rax
	movq	%rax, -16(%rbp)
	jmp	.L19
.L23:
.LBB9:
	.loc 1 24 9
	movq	-8(%rbp), %rax
	movq	(%rax), %rax
	subq	$120, %rax
	movq	%rax, -24(%rbp)
	movq	-24(%rbp), %rax
	movq	120(%rax), %rax
	subq	$120, %rax
	movq	%rax, -32(%rbp)
	jmp	.L20
.L22:
	.loc 1 26 30
	movq	-40(%rbp), %rax
	movq	24(%rax), %rax
	.loc 1 26 16
	cmpq	%rax, -24(%rbp)
	jne	.L21
	.loc 1 28 17
	movq	-24(%rbp), %rax
	movq	72(%rax), %rax
	movl	(%rax), %edx
	movabsq	$curproc, %rax
	movq	(%rax), %rax
	movl	(%rax), %eax
	pushq	-40(%rbp)
	pushq	-8(%rbp)
	movl	%edx, %r9d
	movl	%eax, %r8d
	movabsq	$.LC0, %rax
	movq	%rax, %rcx
	movabsq	$__func__.2, %rax
	movq	%rax, %rdx
	movl	$28, %esi
	movabsq	$.LC1, %rax
	movq	%rax, %rdi
	movl	$0, %eax
	movabsq	$dbg_panic, %r10
	call	*%r10
.LVL0:
.L21:
	.loc 1 24 9 discriminator 2
	movq	-32(%rbp), %rax
	movq	%rax, -24(%rbp)
	movq	-24(%rbp), %rax
	movq	120(%rax), %rax
	subq	$120, %rax
	movq	%rax, -32(%rbp)
.L20:
	.loc 1 24 9 is_stmt 0 discriminator 1
	movq	-24(%rbp), %rax
	leaq	120(%rax), %rdx
	movq	-8(%rbp), %rax
	cmpq	%rax, %rdx
	jne	.L22
.LBE9:
	.loc 1 22 5 is_stmt 1 discriminator 2
	movq	-16(%rbp), %rax
	movq	%rax, -8(%rbp)
	movq	-8(%rbp), %rax
	movq	32(%rax), %rax
	subq	$32, %rax
	movq	%rax, -16(%rbp)
.L19:
	.loc 1 22 5 is_stmt 0 discriminator 1
	movq	-8(%rbp), %rax
	leaq	32(%rax), %rdx
	movabsq	$curthr, %rax
	movq	(%rax), %rax
	addq	$136, %rax
	cmpq	%rax, %rdx
	jne	.L23
.LBE8:
	.loc 1 36 1 is_stmt 1
	nop
	nop
	leave
	.cfi_restore 6
	.cfi_def_cfa 7, 8
	ret
	.cfi_endproc
.LFE10:
	.size	detect_deadlocks, .-detect_deadlocks
	.globl	kmutex_init
	.type	kmutex_init, @function
kmutex_init:
.LFB11:
	.loc 1 42 1
	.cfi_startproc
	pushq	%rbp
	.cfi_def_cfa_offset 16
	.cfi_offset 6, -16
	movq	%rsp, %rbp
	.cfi_def_cfa_register 6
	subq	$16, %rsp
	movq	%rdi, -8(%rbp)
	.loc 1 44 20
	movq	-8(%rbp), %rax
	movq	$0, 24(%rax)
	.loc 1 45 5
	movq	-8(%rbp), %rax
	movq	%rax, %rdi
	movabsq	$sched_queue_init, %rax
	call	*%rax
.LVL1:
	.loc 1 46 5
	movq	-8(%rbp), %rax
	addq	$32, %rax
	movq	%rax, %rdi
	movabsq	$list_link_init, %rax
	call	*%rax
.LVL2:
	.loc 1 48 1
	nop
	leave
	.cfi_restore 6
	.cfi_def_cfa 7, 8
	ret
	.cfi_endproc
.LFE11:
	.size	kmutex_init, .-kmutex_init
	.section	.rodata
.LC2:
	.string	"%s"
.LC3:
	.string	"C%ld P%ld "
.LC4:
	.string	"%s:%d %s(): "
.LC5:
	.string	"locked mutex: %p\n"
.LC6:
	.string	"\033[0m"
	.align 8
.LC7:
	.string	"curthr && \"need thread context to lock mutex\""
.LC8:
	.string	"assertion failed: %s"
	.align 8
.LC9:
	.string	"!kmutex_owns_mutex(mtx) && \"already owner\""
.LC10:
	.string	"kmutex_owns_mutex(mtx)"
	.text
	.globl	kmutex_lock
	.type	kmutex_lock, @function
kmutex_lock:
.LFB12:
	.loc 1 58 1
	.cfi_startproc
	pushq	%rbp
	.cfi_def_cfa_offset 16
	.cfi_offset 6, -16
	movq	%rsp, %rbp
	.cfi_def_cfa_register 6
	subq	$32, %rsp
	movq	%rdi, -24(%rbp)
	.loc 1 61 5
	movabsq	$dbg_modes, %rax
	movq	(%rax), %rax
	andl	$16384, %eax
	testq	%rax, %rax
	je	.L26
	.loc 1 61 5 is_stmt 0 discriminator 1
	movl	$16384, %edi
	movabsq	$dbg_color, %rax
	call	*%rax
.LVL3:
	movq	%rax, %rsi
	movabsq	$.LC2, %rax
	movq	%rax, %rdi
	movl	$0, %eax
	movabsq	$dbg_print, %rdx
	call	*%rdx
.LVL4:
	movabsq	$curproc, %rax
	movq	(%rax), %rax
	testq	%rax, %rax
	je	.L27
	.loc 1 61 5 discriminator 2
	movabsq	$curproc, %rax
	movq	(%rax), %rax
	movl	(%rax), %eax
	cltq
	jmp	.L28
.L27:
	.loc 1 61 5 discriminator 3
	movq	$-1, %rax
.L28:
	.loc 1 61 5 discriminator 5
	movabsq	$curcore, %rdx
	movq	(%rdx), %rcx
	movq	%rax, %rdx
	movq	%rcx, %rsi
	movabsq	$.LC3, %rax
	movq	%rax, %rdi
	movl	$0, %eax
	movabsq	$dbg_print, %rcx
	call	*%rcx
.LVL5:
	movabsq	$__func__.1, %rax
	movq	%rax, %rcx
	movl	$61, %edx
	movabsq	$.LC1, %rax
	movq	%rax, %rsi
	movabsq	$.LC4, %rax
	movq	%rax, %rdi
	movl	$0, %eax
	movabsq	$dbg_print, %r8
	call	*%r8
.LVL6:
	movq	-24(%rbp), %rax
	movq	%rax, %rsi
	movabsq	$.LC5, %rax
	movq	%rax, %rdi
	movl	$0, %eax
	movabsq	$dbg_print, %rdx
	call	*%rdx
.LVL7:
	movabsq	$.LC6, %rax
	movq	%rax, %rsi
	movabsq	$.LC2, %rax
	movq	%rax, %rdi
	movl	$0, %eax
	movabsq	$dbg_print, %rdx
	call	*%rdx
.LVL8:
.L26:
	.loc 1 62 5 is_stmt 1
	movabsq	$curthr, %rax
	movq	(%rax), %rax
	testq	%rax, %rax
	jne	.L29
	.loc 1 62 5 is_stmt 0 discriminator 1
	movabsq	$.LC7, %r8
	movabsq	$.LC8, %rax
	movq	%rax, %rcx
	movabsq	$__func__.1, %rax
	movq	%rax, %rdx
	movl	$62, %esi
	movabsq	$.LC1, %rax
	movq	%rax, %rdi
	movl	$0, %eax
	movabsq	$dbg_panic, %r9
	call	*%r9
.LVL9:
.L29:
	movq	-24(%rbp), %rax
	movq	%rax, -8(%rbp)
.LBB10:
.LBB11:
	.loc 1 117 12 is_stmt 1
	movabsq	$curthr, %rax
	movq	(%rax), %rax
	.loc 1 117 19
	testq	%rax, %rax
	je	.L30
	.loc 1 117 25
	movq	-8(%rbp), %rax
	movq	24(%rax), %rdx
	.loc 1 117 37
	movabsq	$curthr, %rax
	movq	(%rax), %rax
	.loc 1 117 19
	cmpq	%rax, %rdx
	jne	.L30
	movl	$1, %eax
	jmp	.L31
.L30:
	movl	$0, %eax
.L31:
	cltq
.LBE11:
.LBE10:
	.loc 1 63 5
	testq	%rax, %rax
	je	.L33
	.loc 1 63 5 is_stmt 0 discriminator 3
	movabsq	$.LC9, %r8
	movabsq	$.LC8, %rax
	movq	%rax, %rcx
	movabsq	$__func__.1, %rax
	movq	%rax, %rdx
	movl	$63, %esi
	movabsq	$.LC1, %rax
	movq	%rax, %rdi
	movl	$0, %eax
	movabsq	$dbg_panic, %r9
	call	*%r9
.LVL10:
.L33:
	.loc 1 65 12 is_stmt 1
	movq	-24(%rbp), %rax
	movq	24(%rax), %rax
	.loc 1 65 8
	testq	%rax, %rax
	je	.L34
	.loc 1 67 9
	movq	-24(%rbp), %rax
	movq	%rax, %rdi
	movabsq	$detect_deadlocks, %rax
	call	*%rax
.LVL11:
	.loc 1 68 9
	movq	-24(%rbp), %rax
	movq	%rax, %rdi
	movabsq	$sched_sleep_on, %rax
	call	*%rax
.LVL12:
	movq	-24(%rbp), %rax
	movq	%rax, -16(%rbp)
.LBB12:
.LBB13:
	.loc 1 117 12
	movabsq	$curthr, %rax
	movq	(%rax), %rax
	.loc 1 117 19
	testq	%rax, %rax
	je	.L35
	.loc 1 117 25
	movq	-16(%rbp), %rax
	movq	24(%rax), %rdx
	.loc 1 117 37
	movabsq	$curthr, %rax
	movq	(%rax), %rax
	.loc 1 117 19
	cmpq	%rax, %rdx
	jne	.L35
	movl	$1, %eax
	jmp	.L36
.L35:
	movl	$0, %eax
.L36:
	cltq
.LBE13:
.LBE12:
	.loc 1 69 9
	testq	%rax, %rax
	jne	.L39
	.loc 1 69 9 is_stmt 0 discriminator 1
	movabsq	$.LC10, %r8
	movabsq	$.LC8, %rax
	movq	%rax, %rcx
	movabsq	$__func__.1, %rax
	movq	%rax, %rdx
	movl	$69, %esi
	movabsq	$.LC1, %rax
	movq	%rax, %rdi
	movl	$0, %eax
	movabsq	$dbg_panic, %r9
	call	*%r9
.LVL13:
.L34:
	.loc 1 73 24 is_stmt 1
	movabsq	$curthr, %rax
	movq	(%rax), %rdx
	movq	-24(%rbp), %rax
	movq	%rdx, 24(%rax)
	.loc 1 74 9
	movq	-24(%rbp), %rax
	leaq	32(%rax), %rdx
	.loc 1 74 33
	movabsq	$curthr, %rax
	movq	(%rax), %rax
	.loc 1 74 9
	addq	$136, %rax
	movq	%rdx, %rsi
	movq	%rax, %rdi
	movabsq	$list_insert_tail, %rax
	call	*%rax
.LVL14:
.L39:
	.loc 1 77 1
	nop
	leave
	.cfi_restore 6
	.cfi_def_cfa 7, 8
	ret
	.cfi_endproc
.LFE12:
	.size	kmutex_lock, .-kmutex_lock
	.section	.rodata
.LC11:
	.string	"unlocked mutex: %p\n"
	.align 8
.LC12:
	.string	"curthr && (curthr == mtx->km_holder) && \"unlocking a mutex we don\\'t own\""
.LC13:
	.string	"!kmutex_owns_mutex(mtx)"
	.text
	.globl	kmutex_unlock
	.type	kmutex_unlock, @function
kmutex_unlock:
.LFB13:
	.loc 1 89 1
	.cfi_startproc
	pushq	%rbp
	.cfi_def_cfa_offset 16
	.cfi_offset 6, -16
	movq	%rsp, %rbp
	.cfi_def_cfa_register 6
	subq	$32, %rsp
	movq	%rdi, -24(%rbp)
	.loc 1 91 5
	movabsq	$dbg_modes, %rax
	movq	(%rax), %rax
	andl	$16384, %eax
	testq	%rax, %rax
	je	.L41
	.loc 1 91 5 is_stmt 0 discriminator 1
	movl	$16384, %edi
	movabsq	$dbg_color, %rax
	call	*%rax
.LVL15:
	movq	%rax, %rsi
	movabsq	$.LC2, %rax
	movq	%rax, %rdi
	movl	$0, %eax
	movabsq	$dbg_print, %rdx
	call	*%rdx
.LVL16:
	movabsq	$curproc, %rax
	movq	(%rax), %rax
	testq	%rax, %rax
	je	.L42
	.loc 1 91 5 discriminator 2
	movabsq	$curproc, %rax
	movq	(%rax), %rax
	movl	(%rax), %eax
	cltq
	jmp	.L43
.L42:
	.loc 1 91 5 discriminator 3
	movq	$-1, %rax
.L43:
	.loc 1 91 5 discriminator 5
	movabsq	$curcore, %rdx
	movq	(%rdx), %rcx
	movq	%rax, %rdx
	movq	%rcx, %rsi
	movabsq	$.LC3, %rax
	movq	%rax, %rdi
	movl	$0, %eax
	movabsq	$dbg_print, %rcx
	call	*%rcx
.LVL17:
	movabsq	$__func__.0, %rax
	movq	%rax, %rcx
	movl	$91, %edx
	movabsq	$.LC1, %rax
	movq	%rax, %rsi
	movabsq	$.LC4, %rax
	movq	%rax, %rdi
	movl	$0, %eax
	movabsq	$dbg_print, %r8
	call	*%r8
.LVL18:
	movq	-24(%rbp), %rax
	movq	%rax, %rsi
	movabsq	$.LC11, %rax
	movq	%rax, %rdi
	movl	$0, %eax
	movabsq	$dbg_print, %rdx
	call	*%rdx
.LVL19:
	movabsq	$.LC6, %rax
	movq	%rax, %rsi
	movabsq	$.LC2, %rax
	movq	%rax, %rdi
	movl	$0, %eax
	movabsq	$dbg_print, %rdx
	call	*%rdx
.LVL20:
.L41:
	.loc 1 92 5 is_stmt 1
	movabsq	$curthr, %rax
	movq	(%rax), %rax
	testq	%rax, %rax
	je	.L44
	.loc 1 92 5 is_stmt 0 discriminator 2
	movq	-24(%rbp), %rax
	movq	24(%rax), %rdx
	movabsq	$curthr, %rax
	movq	(%rax), %rax
	cmpq	%rax, %rdx
	je	.L45
.L44:
	.loc 1 92 5 discriminator 3
	movabsq	$.LC12, %r8
	movabsq	$.LC8, %rax
	movq	%rax, %rcx
	movabsq	$__func__.0, %rax
	movq	%rax, %rdx
	movl	$92, %esi
	movabsq	$.LC1, %rax
	movq	%rax, %rdi
	movl	$0, %eax
	movabsq	$dbg_panic, %r9
	call	*%r9
.LVL21:
.L45:
	.loc 1 94 5 is_stmt 1
	movq	-24(%rbp), %rax
	leaq	24(%rax), %rdx
	movq	-24(%rbp), %rax
	movq	%rdx, %rsi
	movq	%rax, %rdi
	movabsq	$sched_wakeup_on, %rax
	call	*%rax
.LVL22:
	movq	-24(%rbp), %rax
	movq	%rax, -8(%rbp)
.LBB14:
.LBB15:
	.loc 1 117 12
	movabsq	$curthr, %rax
	movq	(%rax), %rax
	.loc 1 117 19
	testq	%rax, %rax
	je	.L46
	.loc 1 117 25
	movq	-8(%rbp), %rax
	movq	24(%rax), %rdx
	.loc 1 117 37
	movabsq	$curthr, %rax
	movq	(%rax), %rax
	.loc 1 117 19
	cmpq	%rax, %rdx
	jne	.L46
	movl	$1, %eax
	jmp	.L47
.L46:
	movl	$0, %eax
.L47:
	cltq
.LBE15:
.LBE14:
	.loc 1 95 5
	testq	%rax, %rax
	je	.L49
	.loc 1 95 5 is_stmt 0 discriminator 1
	movabsq	$.LC13, %r8
	movabsq	$.LC8, %rax
	movq	%rax, %rcx
	movabsq	$__func__.0, %rax
	movq	%rax, %rdx
	movl	$95, %esi
	movabsq	$.LC1, %rax
	movq	%rax, %rdi
	movl	$0, %eax
	movabsq	$dbg_panic, %r9
	call	*%r9
.LVL23:
.L49:
	.loc 1 96 5 is_stmt 1
	movq	-24(%rbp), %rax
	addq	$32, %rax
	movq	%rax, %rdi
	movabsq	$list_remove, %rax
	call	*%rax
.LVL24:
	.loc 1 97 12
	movq	-24(%rbp), %rax
	movq	24(%rax), %rax
	.loc 1 97 8
	testq	%rax, %rax
	je	.L51
	.loc 1 98 9
	movq	-24(%rbp), %rax
	leaq	32(%rax), %rdx
	.loc 1 98 30
	movq	-24(%rbp), %rax
	movq	24(%rax), %rax
	.loc 1 98 9
	addq	$136, %rax
	movq	%rdx, %rsi
	movq	%rax, %rdi
	movabsq	$list_insert_tail, %rax
	call	*%rax
.LVL25:
.L51:
	.loc 1 101 1
	nop
	leave
	.cfi_restore 6
	.cfi_def_cfa 7, 8
	ret
	.cfi_endproc
.LFE13:
	.size	kmutex_unlock, .-kmutex_unlock
	.globl	kmutex_has_waiters
	.type	kmutex_has_waiters, @function
kmutex_has_waiters:
.LFB14:
	.loc 1 107 1
	.cfi_startproc
	pushq	%rbp
	.cfi_def_cfa_offset 16
	.cfi_offset 6, -16
	movq	%rsp, %rbp
	.cfi_def_cfa_register 6
	subq	$16, %rsp
	movq	%rdi, -8(%rbp)
	.loc 1 108 13
	movq	-8(%rbp), %rax
	movq	%rax, %rdi
	movabsq	$sched_queue_empty, %rax
	call	*%rax
.LVL26:
	.loc 1 108 12
	testq	%rax, %rax
	sete	%al
	movzbl	%al, %eax
	.loc 1 110 1
	leave
	.cfi_restore 6
	.cfi_def_cfa 7, 8
	ret
	.cfi_endproc
.LFE14:
	.size	kmutex_has_waiters, .-kmutex_has_waiters
	.globl	kmutex_owns_mutex
	.type	kmutex_owns_mutex, @function
kmutex_owns_mutex:
.LFB15:
	.loc 1 116 1
	.cfi_startproc
	pushq	%rbp
	.cfi_def_cfa_offset 16
	.cfi_offset 6, -16
	movq	%rsp, %rbp
	.cfi_def_cfa_register 6
	subq	$8, %rsp
	movq	%rdi, -8(%rbp)
	.loc 1 117 12
	movabsq	$curthr, %rax
	movq	(%rax), %rax
	.loc 1 117 19
	testq	%rax, %rax
	je	.L55
	.loc 1 117 25 discriminator 1
	movq	-8(%rbp), %rax
	movq	24(%rax), %rdx
	.loc 1 117 37 discriminator 1
	movabsq	$curthr, %rax
	movq	(%rax), %rax
	.loc 1 117 19 discriminator 1
	cmpq	%rax, %rdx
	jne	.L55
	.loc 1 117 19 is_stmt 0 discriminator 3
	movl	$1, %eax
	jmp	.L56
.L55:
	.loc 1 117 19 discriminator 4
	movl	$0, %eax
.L56:
	.loc 1 117 19 discriminator 6
	cltq
	.loc 1 118 1 is_stmt 1 discriminator 6
	leave
	.cfi_restore 6
	.cfi_def_cfa 7, 8
	ret
	.cfi_endproc
.LFE15:
	.size	kmutex_owns_mutex, .-kmutex_owns_mutex
	.section	.rodata
	.align 16
	.type	__func__.2, @object
	.size	__func__.2, 17
__func__.2:
	.string	"detect_deadlocks"
	.align 8
	.type	__func__.1, @object
	.size	__func__.1, 12
__func__.1:
	.string	"kmutex_lock"
	.align 8
	.type	__func__.0, @object
	.size	__func__.0, 14
__func__.0:
	.string	"kmutex_unlock"
	.text
.Letext0:
	.file 4 "include/types.h"
	.file 5 "include/util/list.h"
	.file 6 "include/proc/sched.h"
	.file 7 "include/proc/kmutex.h"
	.file 8 "include/proc/kthread.h"
	.file 9 "include/vm/vmmap.h"
	.file 10 "include/proc/proc.h"
	.file 11 "include/mm/pagetable.h"
	.file 12 "include/proc/context.h"
	.file 13 "include/proc/core.h"
	.file 14 "include/globals.h"
	.section	.note.GNU-stack,"",@progbits
