	.file	"kthread.c"
	.text
.Ltext0:
	.file 1 "proc/kthread.c"
	.type	intr_enabled, @function
intr_enabled:
.LFB0:
	.file 2 "include/main/interrupt.h"
	.loc 2 82 1
	.cfi_startproc
	pushq	%rbp
	.cfi_def_cfa_offset 16
	.cfi_offset 6, -16
	movq	%rsp, %rbp
	.cfi_def_cfa_register 6
	subq	$16, %rsp
	.loc 2 84 5
#APP
# 84 "include/main/interrupt.h" 1
	pushf; pop %rax; and $0x200, %rax;
# 0 "" 2
#NO_APP
	movq	%rax, -8(%rbp)
	.loc 2 86 12
	movq	-8(%rbp), %rax
	.loc 2 87 1
	leave
	.cfi_restore 6
	.cfi_def_cfa 7, 8
	ret
	.cfi_endproc
.LFE0:
	.size	intr_enabled, .-intr_enabled
	.type	intr_enable, @function
intr_enable:
.LFB1:
	.loc 2 89 34
	.cfi_startproc
	pushq	%rbp
	.cfi_def_cfa_offset 16
	.cfi_offset 6, -16
	movq	%rsp, %rbp
	.cfi_def_cfa_register 6
	.loc 2 89 36
#APP
# 89 "include/main/interrupt.h" 1
	sti
# 0 "" 2
	.loc 2 89 61
#NO_APP
	nop
	popq	%rbp
	.cfi_restore 6
	.cfi_def_cfa 7, 8
	ret
	.cfi_endproc
.LFE1:
	.size	intr_enable, .-intr_enable
	.type	intr_disable, @function
intr_disable:
.LFB2:
	.loc 2 91 35
	.cfi_startproc
	pushq	%rbp
	.cfi_def_cfa_offset 16
	.cfi_offset 6, -16
	movq	%rsp, %rbp
	.cfi_def_cfa_register 6
	.loc 2 91 37
#APP
# 91 "include/main/interrupt.h" 1
	cli
# 0 "" 2
	.loc 2 91 62
#NO_APP
	nop
	popq	%rbp
	.cfi_restore 6
	.cfi_def_cfa 7, 8
	ret
	.cfi_endproc
.LFE2:
	.size	intr_disable, .-intr_disable
	.type	intr_wait, @function
intr_wait:
.LFB3:
	.loc 2 98 1
	.cfi_startproc
	pushq	%rbp
	.cfi_def_cfa_offset 16
	.cfi_offset 6, -16
	movq	%rsp, %rbp
	.cfi_def_cfa_register 6
	.loc 2 105 5
#APP
# 105 "include/main/interrupt.h" 1
	sti; hlt
# 0 "" 2
	.loc 2 106 1
#NO_APP
	nop
	popq	%rbp
	.cfi_restore 6
	.cfi_def_cfa 7, 8
	ret
	.cfi_endproc
.LFE3:
	.size	intr_wait, .-intr_wait
	.type	equals, @function
equals:
.LFB4:
	.file 3 "include/util/debug.h"
	.loc 3 280 1
	.cfi_startproc
	pushq	%rbp
	.cfi_def_cfa_offset 16
	.cfi_offset 6, -16
	movq	%rsp, %rbp
	.cfi_def_cfa_register 6
	subq	$16, %rsp
	movq	%rdi, -8(%rbp)
	movq	%rsi, -16(%rbp)
	.loc 3 281 14
	movq	-8(%rbp), %rax
	cmpq	-16(%rbp), %rax
	sete	%al
	movzbl	%al, %eax
	.loc 3 282 1
	leave
	.cfi_restore 6
	.cfi_def_cfa 7, 8
	ret
	.cfi_endproc
.LFE4:
	.size	equals, .-equals
	.type	notequals, @function
notequals:
.LFB5:
	.loc 3 284 39
	.cfi_startproc
	pushq	%rbp
	.cfi_def_cfa_offset 16
	.cfi_offset 6, -16
	movq	%rsp, %rbp
	.cfi_def_cfa_register 6
	subq	$16, %rsp
	movq	%rdi, -8(%rbp)
	movq	%rsi, -16(%rbp)
	.loc 3 284 50
	movq	-8(%rbp), %rax
	cmpq	-16(%rbp), %rax
	setne	%al
	movzbl	%al, %eax
	.loc 3 284 56
	leave
	.cfi_restore 6
	.cfi_def_cfa 7, 8
	ret
	.cfi_endproc
.LFE5:
	.size	notequals, .-notequals
	.type	lessthan, @function
lessthan:
.LFB6:
	.loc 3 286 38
	.cfi_startproc
	pushq	%rbp
	.cfi_def_cfa_offset 16
	.cfi_offset 6, -16
	movq	%rsp, %rbp
	.cfi_def_cfa_register 6
	subq	$16, %rsp
	movq	%rdi, -8(%rbp)
	movq	%rsi, -16(%rbp)
	.loc 3 286 49
	movq	-8(%rbp), %rax
	cmpq	-16(%rbp), %rax
	setl	%al
	movzbl	%al, %eax
	.loc 3 286 54
	leave
	.cfi_restore 6
	.cfi_def_cfa 7, 8
	ret
	.cfi_endproc
.LFE6:
	.size	lessthan, .-lessthan
	.type	greaterthan, @function
greaterthan:
.LFB7:
	.loc 3 288 41
	.cfi_startproc
	pushq	%rbp
	.cfi_def_cfa_offset 16
	.cfi_offset 6, -16
	movq	%rsp, %rbp
	.cfi_def_cfa_register 6
	subq	$16, %rsp
	movq	%rdi, -8(%rbp)
	movq	%rsi, -16(%rbp)
	.loc 3 288 52
	movq	-8(%rbp), %rax
	cmpq	-16(%rbp), %rax
	setg	%al
	movzbl	%al, %eax
	.loc 3 288 57
	leave
	.cfi_restore 6
	.cfi_def_cfa 7, 8
	ret
	.cfi_endproc
.LFE7:
	.size	greaterthan, .-greaterthan
	.type	lessthaneq, @function
lessthaneq:
.LFB8:
	.loc 3 290 40
	.cfi_startproc
	pushq	%rbp
	.cfi_def_cfa_offset 16
	.cfi_offset 6, -16
	movq	%rsp, %rbp
	.cfi_def_cfa_register 6
	subq	$16, %rsp
	movq	%rdi, -8(%rbp)
	movq	%rsi, -16(%rbp)
	.loc 3 290 51
	movq	-8(%rbp), %rax
	cmpq	-16(%rbp), %rax
	setle	%al
	movzbl	%al, %eax
	.loc 3 290 57
	leave
	.cfi_restore 6
	.cfi_def_cfa 7, 8
	ret
	.cfi_endproc
.LFE8:
	.size	lessthaneq, .-lessthaneq
	.type	greaterthaneq, @function
greaterthaneq:
.LFB9:
	.loc 3 292 43
	.cfi_startproc
	pushq	%rbp
	.cfi_def_cfa_offset 16
	.cfi_offset 6, -16
	movq	%rsp, %rbp
	.cfi_def_cfa_register 6
	subq	$16, %rsp
	movq	%rdi, -8(%rbp)
	movq	%rsi, -16(%rbp)
	.loc 3 292 54
	movq	-8(%rbp), %rax
	cmpq	-16(%rbp), %rax
	setge	%al
	movzbl	%al, %eax
	.loc 3 292 60
	leave
	.cfi_restore 6
	.cfi_def_cfa 7, 8
	ret
	.cfi_endproc
.LFE9:
	.size	greaterthaneq, .-greaterthaneq
	.globl	curthr
	.section	.csd,"aw"
	.align 8
	.type	curthr, @object
	.size	curthr, 8
curthr:
	.zero	8
	.local	kthread_allocator
	.comm	kthread_allocator,8,8
	.text
	.type	alloc_stack, @function
alloc_stack:
.LFB10:
	.loc 1 28 28
	.cfi_startproc
	pushq	%rbp
	.cfi_def_cfa_offset 16
	.cfi_offset 6, -16
	movq	%rsp, %rbp
	.cfi_def_cfa_register 6
	.loc 1 28 37
	movl	$16, %edi
	movabsq	$page_alloc_n, %rax
	call	*%rax
.LVL0:
	.loc 1 28 77
	popq	%rbp
	.cfi_restore 6
	.cfi_def_cfa 7, 8
	ret
	.cfi_endproc
.LFE10:
	.size	alloc_stack, .-alloc_stack
	.type	free_stack, @function
free_stack:
.LFB11:
	.loc 1 34 1
	.cfi_startproc
	pushq	%rbp
	.cfi_def_cfa_offset 16
	.cfi_offset 6, -16
	movq	%rsp, %rbp
	.cfi_def_cfa_register 6
	subq	$16, %rsp
	movq	%rdi, -8(%rbp)
	.loc 1 35 5
	movq	-8(%rbp), %rax
	movl	$16, %esi
	movq	%rax, %rdi
	movabsq	$page_free_n, %rax
	call	*%rax
.LVL1:
	.loc 1 36 1
	nop
	leave
	.cfi_restore 6
	.cfi_def_cfa 7, 8
	ret
	.cfi_endproc
.LFE11:
	.size	free_stack, .-free_stack
	.section	.rodata
.LC0:
	.string	"kthread"
.LC1:
	.string	"kthread_allocator"
.LC2:
	.string	"assertion failed: %s"
.LC3:
	.string	"proc/kthread.c"
	.text
	.globl	kthread_init
	.type	kthread_init, @function
kthread_init:
.LFB12:
	.loc 1 46 1
	.cfi_startproc
	pushq	%rbp
	.cfi_def_cfa_offset 16
	.cfi_offset 6, -16
	movq	%rsp, %rbp
	.cfi_def_cfa_register 6
	.loc 1 49 25
	movl	$160, %esi
	movabsq	$.LC0, %rax
	movq	%rax, %rdi
	movabsq	$slab_allocator_create, %rax
	call	*%rax
.LVL2:
	.loc 1 49 23
	movabsq	$kthread_allocator, %rdx
	movq	%rax, (%rdx)
	.loc 1 50 5
	movabsq	$kthread_allocator, %rax
	movq	(%rax), %rax
	testq	%rax, %rax
	jne	.L23
	.loc 1 50 5 is_stmt 0 discriminator 1
	movabsq	$.LC1, %r8
	movabsq	$.LC2, %rax
	movq	%rax, %rcx
	movabsq	$__func__.4, %rax
	movq	%rax, %rdx
	movl	$50, %esi
	movabsq	$.LC3, %rax
	movq	%rax, %rdi
	movl	$0, %eax
	movabsq	$dbg_panic, %r9
	call	*%r9
.LVL3:
.L23:
	.loc 1 51 1 is_stmt 1
	nop
	popq	%rbp
	.cfi_restore 6
	.cfi_def_cfa 7, 8
	ret
	.cfi_endproc
.LFE12:
	.size	kthread_init, .-kthread_init
	.section	.rodata
.LC4:
	.string	"proc"
.LC5:
	.string	"%s"
.LC6:
	.string	"C%ld P%ld "
.LC7:
	.string	"%s:%d %s(): "
	.align 8
.LC8:
	.string	"created thread 0x%proc of proc %d (0x%proc)\n"
.LC9:
	.string	"\033[0m"
	.text
	.globl	kthread_create
	.type	kthread_create, @function
kthread_create:
.LFB13:
	.loc 1 69 1
	.cfi_startproc
	pushq	%rbp
	.cfi_def_cfa_offset 16
	.cfi_offset 6, -16
	movq	%rsp, %rbp
	.cfi_def_cfa_register 6
	subq	$48, %rsp
	movq	%rdi, -24(%rbp)
	movq	%rsi, -32(%rbp)
	movq	%rdx, -40(%rbp)
	movq	%rcx, -48(%rbp)
	.loc 1 71 5
	cmpq	$0, -24(%rbp)
	jne	.L25
	.loc 1 71 5 is_stmt 0 discriminator 1
	movabsq	$.LC4, %r8
	movabsq	$.LC2, %rax
	movq	%rax, %rcx
	movabsq	$__func__.3, %rax
	movq	%rax, %rdx
	movl	$71, %esi
	movabsq	$.LC3, %rax
	movq	%rax, %rdi
	movl	$0, %eax
	movabsq	$dbg_panic, %r9
	call	*%r9
.LVL4:
.L25:
	.loc 1 72 22 is_stmt 1
	movabsq	$kthread_allocator, %rax
	movq	(%rax), %rax
	movq	%rax, %rdi
	movabsq	$slab_obj_alloc, %rax
	call	*%rax
.LVL5:
	movq	%rax, -8(%rbp)
	.loc 1 73 8
	cmpq	$0, -8(%rbp)
	jne	.L26
	.loc 1 74 16
	movl	$0, %eax
	jmp	.L27
.L26:
	.loc 1 76 22
	movl	$0, %eax
	movabsq	$alloc_stack, %rdx
	call	*%rdx
.LVL6:
	.loc 1 76 20
	movq	-8(%rbp), %rdx
	movq	%rax, 48(%rdx)
	.loc 1 77 13
	movq	-8(%rbp), %rax
	movq	48(%rax), %rax
	.loc 1 77 8
	testq	%rax, %rax
	jne	.L28
	.loc 1 79 9
	movabsq	$kthread_allocator, %rax
	movq	(%rax), %rax
	movq	-8(%rbp), %rdx
	movq	%rdx, %rsi
	movq	%rax, %rdi
	movabsq	$slab_obj_free, %rax
	call	*%rax
.LVL7:
	.loc 1 80 16
	movl	$0, %eax
	jmp	.L27
.L28:
	.loc 1 83 5
	movq	-24(%rbp), %rax
	movq	352(%rax), %rdi
	.loc 1 83 54
	movq	-8(%rbp), %rax
	movq	48(%rax), %r8
	.loc 1 83 5
	movq	-8(%rbp), %rax
	movq	-48(%rbp), %rcx
	movq	-40(%rbp), %rdx
	movq	-32(%rbp), %rsi
	subq	$8, %rsp
	pushq	%rdi
	movl	$65536, %r9d
	movq	%rax, %rdi
	movabsq	$context_setup, %rax
	call	*%rax
.LVL8:
	addq	$16, %rsp
	.loc 1 85 20
	movq	-8(%rbp), %rax
	movq	$0, 56(%rax)
	.loc 1 86 19
	movq	-8(%rbp), %rax
	movq	$0, 64(%rax)
	.loc 1 87 18
	movq	-8(%rbp), %rax
	movq	-24(%rbp), %rdx
	movq	%rdx, 72(%rax)
	.loc 1 88 23
	movq	-8(%rbp), %rax
	movq	$0, 80(%rax)
	.loc 1 89 19
	movq	-8(%rbp), %rax
	movq	$0, 88(%rax)
	.loc 1 90 19
	movq	-8(%rbp), %rax
	movl	$0, 96(%rax)
	.loc 1 91 26
	movq	-8(%rbp), %rax
	movq	$0, 120(%rax)
	.loc 1 92 26
	movq	-8(%rbp), %rax
	movq	$0, 128(%rax)
	.loc 1 93 5
	movq	-8(%rbp), %rax
	leaq	104(%rax), %rdx
	.loc 1 93 24
	movq	-24(%rbp), %rax
	addq	$264, %rax
	.loc 1 93 5
	movq	%rdx, %rsi
	movq	%rax, %rdi
	movabsq	$list_insert_before, %rax
	call	*%rax
.LVL9:
	.loc 1 94 5
	movq	-8(%rbp), %rax
	addq	$136, %rax
	movq	%rax, %rdi
	movabsq	$list_init, %rax
	call	*%rax
.LVL10:
	.loc 1 96 30
	movq	-8(%rbp), %rax
	movq	$0, 152(%rax)
	.loc 1 98 5
	movabsq	$dbg_modes, %rax
	movq	(%rax), %rax
	andl	$8388608, %eax
	testq	%rax, %rax
	je	.L29
	.loc 1 98 5 is_stmt 0 discriminator 1
	movl	$8388608, %edi
	movabsq	$dbg_color, %rax
	call	*%rax
.LVL11:
	movq	%rax, %rsi
	movabsq	$.LC5, %rax
	movq	%rax, %rdi
	movl	$0, %eax
	movabsq	$dbg_print, %rdx
	call	*%rdx
.LVL12:
	movabsq	$curproc, %rax
	movq	(%rax), %rax
	testq	%rax, %rax
	je	.L30
	.loc 1 98 5 discriminator 2
	movabsq	$curproc, %rax
	movq	(%rax), %rax
	movl	(%rax), %eax
	cltq
	jmp	.L31
.L30:
	.loc 1 98 5 discriminator 3
	movq	$-1, %rax
.L31:
	.loc 1 98 5 discriminator 5
	movabsq	$curcore, %rdx
	movq	(%rdx), %rcx
	movq	%rax, %rdx
	movq	%rcx, %rsi
	movabsq	$.LC6, %rax
	movq	%rax, %rdi
	movl	$0, %eax
	movabsq	$dbg_print, %rcx
	call	*%rcx
.LVL13:
	movabsq	$__func__.3, %rax
	movq	%rax, %rcx
	movl	$98, %edx
	movabsq	$.LC3, %rax
	movq	%rax, %rsi
	movabsq	$.LC7, %rax
	movq	%rax, %rdi
	movl	$0, %eax
	movabsq	$dbg_print, %r8
	call	*%r8
.LVL14:
	movq	-24(%rbp), %rax
	movl	(%rax), %edx
	movq	-24(%rbp), %rcx
	movq	-8(%rbp), %rax
	movq	%rax, %rsi
	movabsq	$.LC8, %rax
	movq	%rax, %rdi
	movl	$0, %eax
	movabsq	$dbg_print, %r8
	call	*%r8
.LVL15:
	movabsq	$.LC9, %rax
	movq	%rax, %rsi
	movabsq	$.LC5, %rax
	movq	%rax, %rdi
	movl	$0, %eax
	movabsq	$dbg_print, %rdx
	call	*%rdx
.LVL16:
.L29:
	.loc 1 100 12 is_stmt 1
	movq	-8(%rbp), %rax
.L27:
	.loc 1 103 1
	leave
	.cfi_restore 6
	.cfi_def_cfa 7, 8
	ret
	.cfi_endproc
.LFE13:
	.size	kthread_create, .-kthread_create
	.section	.rodata
	.align 8
.LC10:
	.string	"!list_link_is_linked(&thr->kt_qlink)"
	.align 8
.LC11:
	.string	"new_thr->kt_state != KT_EXITED"
	.text
	.globl	kthread_clone
	.type	kthread_clone, @function
kthread_clone:
.LFB14:
	.loc 1 118 1
	.cfi_startproc
	pushq	%rbp
	.cfi_def_cfa_offset 16
	.cfi_offset 6, -16
	movq	%rsp, %rbp
	.cfi_def_cfa_register 6
	subq	$32, %rsp
	movq	%rdi, -24(%rbp)
	.loc 1 120 26
	movabsq	$kthread_allocator, %rax
	movq	(%rax), %rax
	movq	%rax, %rdi
	movabsq	$slab_obj_alloc, %rax
	call	*%rax
.LVL17:
	movq	%rax, -8(%rbp)
	.loc 1 121 8
	cmpq	$0, -8(%rbp)
	jne	.L33
	.loc 1 122 16
	movl	$0, %eax
	jmp	.L34
.L33:
	.loc 1 124 26
	movl	$0, %eax
	movabsq	$alloc_stack, %rdx
	call	*%rdx
.LVL18:
	.loc 1 124 24
	movq	-8(%rbp), %rdx
	movq	%rax, 48(%rdx)
	.loc 1 125 17
	movq	-8(%rbp), %rax
	movq	48(%rax), %rax
	.loc 1 125 8
	testq	%rax, %rax
	jne	.L35
	.loc 1 127 9
	movabsq	$kthread_allocator, %rax
	movq	(%rax), %rax
	movq	-8(%rbp), %rdx
	movq	%rdx, %rsi
	movq	%rax, %rdi
	movabsq	$slab_obj_free, %rax
	call	*%rax
.LVL19:
	.loc 1 128 16
	movl	$0, %eax
	jmp	.L34
.L35:
	.loc 1 131 12
	movq	-8(%rbp), %rax
	.loc 1 131 5
	movl	$48, %edx
	movl	$0, %esi
	movq	%rax, %rdi
	movabsq	$memset, %rax
	call	*%rax
.LVL20:
	.loc 1 132 50
	movq	-8(%rbp), %rax
	movq	48(%rax), %rax
	.loc 1 132 32
	movq	%rax, %rdx
	.loc 1 132 30
	movq	-8(%rbp), %rax
	movq	%rdx, 32(%rax)
	.loc 1 133 32
	movq	-8(%rbp), %rax
	movq	$65536, 40(%rax)
	.loc 1 134 22
	movq	-8(%rbp), %rax
	movq	$0, 72(%rax)
	.loc 1 136 5
	movq	-8(%rbp), %rax
	addq	$136, %rax
	movq	%rax, %rdi
	movabsq	$list_init, %rax
	call	*%rax
.LVL21:
	.loc 1 138 34
	movq	-8(%rbp), %rax
	movq	$0, 152(%rax)
	.loc 1 140 23
	movq	-8(%rbp), %rax
	movq	$0, 88(%rax)
	.loc 1 141 23
	movq	-8(%rbp), %rax
	movl	$0, 96(%rax)
	.loc 1 143 5
	movq	-8(%rbp), %rax
	addq	$104, %rax
	movq	%rax, %rdi
	movabsq	$list_link_init, %rax
	call	*%rax
.LVL22:
	.loc 1 144 5
	movq	-8(%rbp), %rax
	addq	$120, %rax
	movq	%rax, %rdi
	movabsq	$list_link_init, %rax
	call	*%rax
.LVL23:
	.loc 1 146 5
	movq	-24(%rbp), %rax
	addq	$120, %rax
	movq	%rax, %rdi
	movabsq	$list_link_is_linked, %rax
	call	*%rax
.LVL24:
	testq	%rax, %rax
	je	.L36
	.loc 1 146 5 is_stmt 0 discriminator 1
	movabsq	$.LC10, %r8
	movabsq	$.LC2, %rax
	movq	%rax, %rcx
	movabsq	$__func__.2, %rax
	movq	%rax, %rdx
	movl	$146, %esi
	movabsq	$.LC3, %rax
	movq	%rax, %rdi
	movl	$0, %eax
	movabsq	$dbg_panic, %r9
	call	*%r9
.LVL25:
.L36:
	.loc 1 147 29 is_stmt 1
	movq	-24(%rbp), %rax
	movq	56(%rax), %rdx
	.loc 1 147 24
	movq	-8(%rbp), %rax
	movq	%rdx, 56(%rax)
	.loc 1 148 28
	movq	-24(%rbp), %rax
	movq	64(%rax), %rdx
	.loc 1 148 23
	movq	-8(%rbp), %rax
	movq	%rdx, 64(%rax)
	.loc 1 149 32
	movq	-24(%rbp), %rax
	movq	80(%rax), %rdx
	.loc 1 149 27
	movq	-8(%rbp), %rax
	movq	%rdx, 80(%rax)
	.loc 1 150 5
	movq	-8(%rbp), %rax
	movl	96(%rax), %eax
	cmpl	$5, %eax
	jne	.L37
	.loc 1 150 5 is_stmt 0 discriminator 1
	movabsq	$.LC11, %r8
	movabsq	$.LC2, %rax
	movq	%rax, %rcx
	movabsq	$__func__.2, %rax
	movq	%rax, %rdx
	movl	$150, %esi
	movabsq	$.LC3, %rax
	movq	%rax, %rdi
	movl	$0, %eax
	movabsq	$dbg_panic, %r9
	call	*%r9
.LVL26:
.L37:
	.loc 1 151 12 is_stmt 1
	movq	-8(%rbp), %rax
.L34:
	.loc 1 154 1
	leave
	.cfi_restore 6
	.cfi_def_cfa 7, 8
	ret
	.cfi_endproc
.LFE14:
	.size	kthread_clone, .-kthread_clone
	.section	.rodata
.LC12:
	.string	"thr != curthr"
.LC13:
	.string	"thr && thr->kt_kstack"
	.align 8
.LC14:
	.string	"destroying thread in state %d\n"
	.text
	.globl	kthread_destroy
	.type	kthread_destroy, @function
kthread_destroy:
.LFB15:
	.loc 1 164 1
	.cfi_startproc
	pushq	%rbp
	.cfi_def_cfa_offset 16
	.cfi_offset 6, -16
	movq	%rsp, %rbp
	.cfi_def_cfa_register 6
	subq	$16, %rsp
	movq	%rdi, -8(%rbp)
	.loc 1 165 5
	movabsq	$curthr, %rax
	movq	(%rax), %rax
	cmpq	%rax, -8(%rbp)
	jne	.L39
	.loc 1 165 5 is_stmt 0 discriminator 1
	movabsq	$.LC12, %r8
	movabsq	$.LC2, %rax
	movq	%rax, %rcx
	movabsq	$__func__.1, %rax
	movq	%rax, %rdx
	movl	$165, %esi
	movabsq	$.LC3, %rax
	movq	%rax, %rdi
	movl	$0, %eax
	movabsq	$dbg_panic, %r9
	call	*%r9
.LVL27:
.L39:
	.loc 1 166 5 is_stmt 1
	cmpq	$0, -8(%rbp)
	je	.L40
	.loc 1 166 5 is_stmt 0 discriminator 2
	movq	-8(%rbp), %rax
	movq	48(%rax), %rax
	testq	%rax, %rax
	jne	.L41
.L40:
	.loc 1 166 5 discriminator 3
	movabsq	$.LC13, %r8
	movabsq	$.LC2, %rax
	movq	%rax, %rcx
	movabsq	$__func__.1, %rax
	movq	%rax, %rdx
	movl	$166, %esi
	movabsq	$.LC3, %rax
	movq	%rax, %rdi
	movl	$0, %eax
	movabsq	$dbg_panic, %r9
	call	*%r9
.LVL28:
.L41:
	.loc 1 167 12 is_stmt 1
	movq	-8(%rbp), %rax
	movl	96(%rax), %eax
	.loc 1 167 8
	cmpl	$5, %eax
	je	.L42
	.loc 1 168 9
	movq	-8(%rbp), %rax
	movl	96(%rax), %eax
	movl	%eax, %r8d
	movabsq	$.LC14, %rax
	movq	%rax, %rcx
	movabsq	$__func__.1, %rax
	movq	%rax, %rdx
	movl	$168, %esi
	movabsq	$.LC3, %rax
	movq	%rax, %rdi
	movl	$0, %eax
	movabsq	$dbg_panic, %r9
	call	*%r9
.LVL29:
.L42:
	.loc 1 169 5
	movq	-8(%rbp), %rax
	movq	48(%rax), %rax
	movq	%rax, %rdi
	movabsq	$free_stack, %rax
	call	*%rax
.LVL30:
	.loc 1 170 29
	movq	-8(%rbp), %rax
	addq	$104, %rax
	.loc 1 170 9
	movq	%rax, %rdi
	movabsq	$list_link_is_linked, %rax
	call	*%rax
.LVL31:
	.loc 1 170 8
	testq	%rax, %rax
	je	.L43
	.loc 1 171 9
	movq	-8(%rbp), %rax
	addq	$104, %rax
	movq	%rax, %rdi
	movabsq	$list_remove, %rax
	call	*%rax
.LVL32:
.L43:
	.loc 1 173 5
	movabsq	$kthread_allocator, %rax
	movq	(%rax), %rax
	movq	-8(%rbp), %rdx
	movq	%rdx, %rsi
	movq	%rax, %rdi
	movabsq	$slab_obj_free, %rax
	call	*%rax
.LVL33:
	.loc 1 174 1
	nop
	leave
	.cfi_restore 6
	.cfi_def_cfa 7, 8
	ret
	.cfi_endproc
.LFE15:
	.size	kthread_destroy, .-kthread_destroy
	.section	.rodata
.LC15:
	.string	"thr && thr != curthr"
	.text
	.globl	kthread_cancel
	.type	kthread_cancel, @function
kthread_cancel:
.LFB16:
	.loc 1 189 1
	.cfi_startproc
	pushq	%rbp
	.cfi_def_cfa_offset 16
	.cfi_offset 6, -16
	movq	%rsp, %rbp
	.cfi_def_cfa_register 6
	subq	$16, %rsp
	movq	%rdi, -8(%rbp)
	movq	%rsi, -16(%rbp)
	.loc 1 191 5
	cmpq	$0, -8(%rbp)
	je	.L45
	.loc 1 191 5 is_stmt 0 discriminator 2
	movabsq	$curthr, %rax
	movq	(%rax), %rax
	cmpq	%rax, -8(%rbp)
	jne	.L46
.L45:
	.loc 1 191 5 discriminator 3
	movabsq	$.LC15, %r8
	movabsq	$.LC2, %rax
	movq	%rax, %rcx
	movabsq	$__func__.0, %rax
	movq	%rax, %rdx
	movl	$191, %esi
	movabsq	$.LC3, %rax
	movq	%rax, %rdi
	movl	$0, %eax
	movabsq	$dbg_panic, %r9
	call	*%r9
.LVL34:
.L46:
	.loc 1 192 20 is_stmt 1
	movq	-8(%rbp), %rax
	movq	-16(%rbp), %rdx
	movq	%rdx, 56(%rax)
	.loc 1 193 5
	movq	-8(%rbp), %rax
	movq	%rax, %rdi
	movabsq	$sched_cancel, %rax
	call	*%rax
.LVL35:
	.loc 1 195 1
	nop
	leave
	.cfi_restore 6
	.cfi_def_cfa 7, 8
	ret
	.cfi_endproc
.LFE16:
	.size	kthread_cancel, .-kthread_cancel
	.globl	kthread_exit
	.type	kthread_exit, @function
kthread_exit:
.LFB17:
	.loc 1 201 1
	.cfi_startproc
	pushq	%rbp
	.cfi_def_cfa_offset 16
	.cfi_offset 6, -16
	movq	%rsp, %rbp
	.cfi_def_cfa_register 6
	subq	$16, %rsp
	movq	%rdi, -8(%rbp)
	.loc 1 203 5
	movq	-8(%rbp), %rax
	movq	%rax, %rdi
	movabsq	$proc_thread_exiting, %rax
	call	*%rax
.LVL36:
	.loc 1 205 1
	nop
	leave
	.cfi_restore 6
	.cfi_def_cfa 7, 8
	ret
	.cfi_endproc
.LFE17:
	.size	kthread_exit, .-kthread_exit
	.section	.rodata
	.align 8
	.type	__func__.4, @object
	.size	__func__.4, 13
__func__.4:
	.string	"kthread_init"
	.align 8
	.type	__func__.3, @object
	.size	__func__.3, 15
__func__.3:
	.string	"kthread_create"
	.align 8
	.type	__func__.2, @object
	.size	__func__.2, 14
__func__.2:
	.string	"kthread_clone"
	.align 16
	.type	__func__.1, @object
	.size	__func__.1, 16
__func__.1:
	.string	"kthread_destroy"
	.align 8
	.type	__func__.0, @object
	.size	__func__.0, 15
__func__.0:
	.string	"kthread_cancel"
	.text
.Letext0:
	.file 4 "include/types.h"
	.file 5 "include/util/list.h"
	.file 6 "include/vm/vmmap.h"
	.file 7 "include/proc/proc.h"
	.file 8 "include/mm/pagetable.h"
	.file 9 "include/proc/context.h"
	.file 10 "include/proc/sched.h"
	.file 11 "include/proc/core.h"
	.file 12 "include/proc/kthread.h"
	.file 13 "include/globals.h"
	.file 14 "include/mm/slab.h"
	.file 15 "include/util/string.h"
	.file 16 "include/mm/page.h"
	.section	.note.GNU-stack,"",@progbits
