	.file	"proc.c"
	.text
.Ltext0:
	.file 1 "proc/proc.c"
	.type	__atomic_add_unless, @function
__atomic_add_unless:
.LFB0:
	.file 2 "include/util/atomic.h"
	.loc 2 9 1
	.cfi_startproc
	pushq	%rbp
	.cfi_def_cfa_offset 16
	.cfi_offset 6, -16
	movq	%rsp, %rbp
	.cfi_def_cfa_register 6
	subq	$32, %rsp
	movq	%rdi, -24(%rbp)
	movl	%esi, -28(%rbp)
	movl	%edx, -32(%rbp)
	.loc 2 11 9
	movq	-24(%rbp), %rax
	movl	$0, %edx
	lock xaddl	%edx, (%rax)
	.loc 2 11 7
	movl	%edx, -4(%rbp)
	.loc 2 12 11
	jmp	.L2
.L4:
	.loc 2 13 11
	movl	-8(%rbp), %eax
	movl	%eax, -4(%rbp)
.L2:
	.loc 2 12 19
	movl	-4(%rbp), %eax
	cmpl	-32(%rbp), %eax
	je	.L3
	.loc 2 12 65 discriminator 1
	movl	-4(%rbp), %edx
	movl	-28(%rbp), %eax
	addl	%edx, %eax
	.loc 2 12 29 discriminator 1
	movl	%eax, %ecx
	movl	-4(%rbp), %eax
	movq	-24(%rbp), %rdx
	lock cmpxchgl	%ecx, (%rdx)
	.loc 2 12 27 discriminator 1
	movl	%eax, -8(%rbp)
	.loc 2 12 19 discriminator 1
	movl	-8(%rbp), %eax
	cmpl	-4(%rbp), %eax
	jne	.L4
.L3:
	.loc 2 14 12
	movl	-4(%rbp), %eax
	.loc 2 15 1
	leave
	.cfi_restore 6
	.cfi_def_cfa 7, 8
	ret
	.cfi_endproc
.LFE0:
	.size	__atomic_add_unless, .-__atomic_add_unless
	.type	atomic_set, @function
atomic_set:
.LFB1:
	.loc 2 17 51
	.cfi_startproc
	pushq	%rbp
	.cfi_def_cfa_offset 16
	.cfi_offset 6, -16
	movq	%rsp, %rbp
	.cfi_def_cfa_register 6
	subq	$16, %rsp
	movq	%rdi, -8(%rbp)
	movl	%esi, -12(%rbp)
	.loc 2 17 56
	movq	-8(%rbp), %rax
	movl	-12(%rbp), %edx
	movl	%edx, (%rax)
	.loc 2 17 61
	nop
	leave
	.cfi_restore 6
	.cfi_def_cfa 7, 8
	ret
	.cfi_endproc
.LFE1:
	.size	atomic_set, .-atomic_set
	.type	atomic_inc, @function
atomic_inc:
.LFB2:
	.loc 2 19 44
	.cfi_startproc
	pushq	%rbp
	.cfi_def_cfa_offset 16
	.cfi_offset 6, -16
	movq	%rsp, %rbp
	.cfi_def_cfa_register 6
	subq	$8, %rsp
	movq	%rdi, -8(%rbp)
	.loc 2 19 46
	movq	-8(%rbp), %rax
	lock addl	$1, (%rax)
	.loc 2 19 74
	nop
	leave
	.cfi_restore 6
	.cfi_def_cfa 7, 8
	ret
	.cfi_endproc
.LFE2:
	.size	atomic_inc, .-atomic_inc
	.type	atomic_dec_and_test, @function
atomic_dec_and_test:
.LFB3:
	.loc 2 22 1
	.cfi_startproc
	pushq	%rbp
	.cfi_def_cfa_offset 16
	.cfi_offset 6, -16
	movq	%rsp, %rbp
	.cfi_def_cfa_register 6
	subq	$8, %rsp
	movq	%rdi, -8(%rbp)
	.loc 2 23 12
	movq	-8(%rbp), %rdx
	movl	$1, %eax
	negl	%eax
	movl	%eax, %ecx
	movl	%ecx, %eax
	lock xaddl	%eax, (%rdx)
	addl	%ecx, %eax
	.loc 2 23 39
	testl	%eax, %eax
	sete	%al
	movzbl	%al, %eax
	.loc 2 24 1
	leave
	.cfi_restore 6
	.cfi_def_cfa 7, 8
	ret
	.cfi_endproc
.LFE3:
	.size	atomic_dec_and_test, .-atomic_dec_and_test
	.type	atomic_inc_not_zero, @function
atomic_inc_not_zero:
.LFB4:
	.loc 2 27 1
	.cfi_startproc
	pushq	%rbp
	.cfi_def_cfa_offset 16
	.cfi_offset 6, -16
	movq	%rsp, %rbp
	.cfi_def_cfa_register 6
	subq	$40, %rsp
	movq	%rdi, -40(%rbp)
	movq	-40(%rbp), %rax
	movq	%rax, -8(%rbp)
	movl	$1, -12(%rbp)
	movl	$0, -16(%rbp)
.LBB4:
.LBB5:
	.loc 2 11 9
	movq	-8(%rbp), %rax
	movl	$0, %edx
	lock xaddl	%edx, (%rax)
	.loc 2 11 7
	movl	%edx, -20(%rbp)
	.loc 2 12 11
	jmp	.L11
.L13:
	.loc 2 13 11
	movl	-24(%rbp), %eax
	movl	%eax, -20(%rbp)
.L11:
	.loc 2 12 19
	movl	-16(%rbp), %eax
	cmpl	-20(%rbp), %eax
	je	.L12
	.loc 2 12 65
	movl	-12(%rbp), %edx
	movl	-20(%rbp), %eax
	addl	%edx, %eax
	.loc 2 12 29
	movl	%eax, %ecx
	movl	-20(%rbp), %eax
	movq	-8(%rbp), %rdx
	lock cmpxchgl	%ecx, (%rdx)
	.loc 2 12 27
	movl	%eax, -24(%rbp)
	.loc 2 12 19
	movl	-24(%rbp), %eax
	cmpl	-20(%rbp), %eax
	jne	.L13
.L12:
	.loc 2 14 12
	movl	-20(%rbp), %eax
.LBE5:
.LBE4:
	.loc 2 29 1
	leave
	.cfi_restore 6
	.cfi_def_cfa 7, 8
	ret
	.cfi_endproc
.LFE4:
	.size	atomic_inc_not_zero, .-atomic_inc_not_zero
	.type	intr_enabled, @function
intr_enabled:
.LFB5:
	.file 3 "include/main/interrupt.h"
	.loc 3 82 1
	.cfi_startproc
	pushq	%rbp
	.cfi_def_cfa_offset 16
	.cfi_offset 6, -16
	movq	%rsp, %rbp
	.cfi_def_cfa_register 6
	subq	$16, %rsp
	.loc 3 84 5
#APP
# 84 "include/main/interrupt.h" 1
	pushf; pop %rax; and $0x200, %rax;
# 0 "" 2
#NO_APP
	movq	%rax, -8(%rbp)
	.loc 3 86 12
	movq	-8(%rbp), %rax
	.loc 3 87 1
	leave
	.cfi_restore 6
	.cfi_def_cfa 7, 8
	ret
	.cfi_endproc
.LFE5:
	.size	intr_enabled, .-intr_enabled
	.type	intr_enable, @function
intr_enable:
.LFB6:
	.loc 3 89 34
	.cfi_startproc
	pushq	%rbp
	.cfi_def_cfa_offset 16
	.cfi_offset 6, -16
	movq	%rsp, %rbp
	.cfi_def_cfa_register 6
	.loc 3 89 36
#APP
# 89 "include/main/interrupt.h" 1
	sti
# 0 "" 2
	.loc 3 89 61
#NO_APP
	nop
	popq	%rbp
	.cfi_restore 6
	.cfi_def_cfa 7, 8
	ret
	.cfi_endproc
.LFE6:
	.size	intr_enable, .-intr_enable
	.type	intr_disable, @function
intr_disable:
.LFB7:
	.loc 3 91 35
	.cfi_startproc
	pushq	%rbp
	.cfi_def_cfa_offset 16
	.cfi_offset 6, -16
	movq	%rsp, %rbp
	.cfi_def_cfa_register 6
	.loc 3 91 37
#APP
# 91 "include/main/interrupt.h" 1
	cli
# 0 "" 2
	.loc 3 91 62
#NO_APP
	nop
	popq	%rbp
	.cfi_restore 6
	.cfi_def_cfa 7, 8
	ret
	.cfi_endproc
.LFE7:
	.size	intr_disable, .-intr_disable
	.type	intr_wait, @function
intr_wait:
.LFB8:
	.loc 3 98 1
	.cfi_startproc
	pushq	%rbp
	.cfi_def_cfa_offset 16
	.cfi_offset 6, -16
	movq	%rsp, %rbp
	.cfi_def_cfa_register 6
	.loc 3 105 5
#APP
# 105 "include/main/interrupt.h" 1
	sti; hlt
# 0 "" 2
	.loc 3 106 1
#NO_APP
	nop
	popq	%rbp
	.cfi_restore 6
	.cfi_def_cfa 7, 8
	ret
	.cfi_endproc
.LFE8:
	.size	intr_wait, .-intr_wait
	.type	equals, @function
equals:
.LFB9:
	.file 4 "include/util/debug.h"
	.loc 4 280 1
	.cfi_startproc
	pushq	%rbp
	.cfi_def_cfa_offset 16
	.cfi_offset 6, -16
	movq	%rsp, %rbp
	.cfi_def_cfa_register 6
	subq	$16, %rsp
	movq	%rdi, -8(%rbp)
	movq	%rsi, -16(%rbp)
	.loc 4 281 14
	movq	-8(%rbp), %rax
	cmpq	-16(%rbp), %rax
	sete	%al
	movzbl	%al, %eax
	.loc 4 282 1
	leave
	.cfi_restore 6
	.cfi_def_cfa 7, 8
	ret
	.cfi_endproc
.LFE9:
	.size	equals, .-equals
	.type	notequals, @function
notequals:
.LFB10:
	.loc 4 284 39
	.cfi_startproc
	pushq	%rbp
	.cfi_def_cfa_offset 16
	.cfi_offset 6, -16
	movq	%rsp, %rbp
	.cfi_def_cfa_register 6
	subq	$16, %rsp
	movq	%rdi, -8(%rbp)
	movq	%rsi, -16(%rbp)
	.loc 4 284 50
	movq	-8(%rbp), %rax
	cmpq	-16(%rbp), %rax
	setne	%al
	movzbl	%al, %eax
	.loc 4 284 56
	leave
	.cfi_restore 6
	.cfi_def_cfa 7, 8
	ret
	.cfi_endproc
.LFE10:
	.size	notequals, .-notequals
	.type	lessthan, @function
lessthan:
.LFB11:
	.loc 4 286 38
	.cfi_startproc
	pushq	%rbp
	.cfi_def_cfa_offset 16
	.cfi_offset 6, -16
	movq	%rsp, %rbp
	.cfi_def_cfa_register 6
	subq	$16, %rsp
	movq	%rdi, -8(%rbp)
	movq	%rsi, -16(%rbp)
	.loc 4 286 49
	movq	-8(%rbp), %rax
	cmpq	-16(%rbp), %rax
	setl	%al
	movzbl	%al, %eax
	.loc 4 286 54
	leave
	.cfi_restore 6
	.cfi_def_cfa 7, 8
	ret
	.cfi_endproc
.LFE11:
	.size	lessthan, .-lessthan
	.type	greaterthan, @function
greaterthan:
.LFB12:
	.loc 4 288 41
	.cfi_startproc
	pushq	%rbp
	.cfi_def_cfa_offset 16
	.cfi_offset 6, -16
	movq	%rsp, %rbp
	.cfi_def_cfa_register 6
	subq	$16, %rsp
	movq	%rdi, -8(%rbp)
	movq	%rsi, -16(%rbp)
	.loc 4 288 52
	movq	-8(%rbp), %rax
	cmpq	-16(%rbp), %rax
	setg	%al
	movzbl	%al, %eax
	.loc 4 288 57
	leave
	.cfi_restore 6
	.cfi_def_cfa 7, 8
	ret
	.cfi_endproc
.LFE12:
	.size	greaterthan, .-greaterthan
	.type	lessthaneq, @function
lessthaneq:
.LFB13:
	.loc 4 290 40
	.cfi_startproc
	pushq	%rbp
	.cfi_def_cfa_offset 16
	.cfi_offset 6, -16
	movq	%rsp, %rbp
	.cfi_def_cfa_register 6
	subq	$16, %rsp
	movq	%rdi, -8(%rbp)
	movq	%rsi, -16(%rbp)
	.loc 4 290 51
	movq	-8(%rbp), %rax
	cmpq	-16(%rbp), %rax
	setle	%al
	movzbl	%al, %eax
	.loc 4 290 57
	leave
	.cfi_restore 6
	.cfi_def_cfa 7, 8
	ret
	.cfi_endproc
.LFE13:
	.size	lessthaneq, .-lessthaneq
	.type	greaterthaneq, @function
greaterthaneq:
.LFB14:
	.loc 4 292 43
	.cfi_startproc
	pushq	%rbp
	.cfi_def_cfa_offset 16
	.cfi_offset 6, -16
	movq	%rsp, %rbp
	.cfi_def_cfa_register 6
	subq	$16, %rsp
	movq	%rdi, -8(%rbp)
	movq	%rsi, -16(%rbp)
	.loc 4 292 54
	movq	-8(%rbp), %rax
	cmpq	-16(%rbp), %rax
	setge	%al
	movzbl	%al, %eax
	.loc 4 292 60
	leave
	.cfi_restore 6
	.cfi_def_cfa 7, 8
	ret
	.cfi_endproc
.LFE14:
	.size	greaterthaneq, .-greaterthaneq
	.globl	curproc
	.section	.csd,"aw"
	.align 8
	.type	curproc, @object
	.size	curproc, 8
curproc:
	.zero	8
	.data
	.align 16
	.type	proc_list, @object
	.size	proc_list, 16
proc_list:
	.quad	proc_list
	.quad	proc_list
	.local	proc_allocator
	.comm	proc_allocator,8,8
	.globl	idleproc
	.section	.csd
	.align 32
	.type	idleproc, @object
	.size	idleproc, 672
idleproc:
	.zero	672
	.local	proc_initproc
	.comm	proc_initproc,8,8
	.section	.rodata
.LC0:
	.string	"proc"
.LC1:
	.string	"proc_allocator"
.LC2:
	.string	"assertion failed: %s"
.LC3:
	.string	"proc/proc.c"
	.text
	.globl	proc_init
	.type	proc_init, @function
proc_init:
.LFB15:
	.loc 1 56 1
	.cfi_startproc
	pushq	%rbp
	.cfi_def_cfa_offset 16
	.cfi_offset 6, -16
	movq	%rsp, %rbp
	.cfi_def_cfa_register 6
	.loc 1 57 22
	movl	$672, %esi
	movabsq	$.LC0, %rax
	movq	%rax, %rdi
	movabsq	$slab_allocator_create, %rax
	call	*%rax
.LVL0:
	.loc 1 57 20
	movabsq	$proc_allocator, %rdx
	movq	%rax, (%rdx)
	.loc 1 58 5
	movabsq	$proc_allocator, %rax
	movq	(%rax), %rax
	testq	%rax, %rax
	jne	.L35
	.loc 1 58 5 is_stmt 0 discriminator 1
	movabsq	$.LC1, %r8
	movabsq	$.LC2, %rax
	movq	%rax, %rcx
	movabsq	$__func__.11, %rax
	movq	%rax, %rdx
	movl	$58, %esi
	movabsq	$.LC3, %rax
	movq	%rax, %rdi
	movl	$0, %eax
	movabsq	$dbg_panic, %r9
	call	*%r9
.LVL1:
.L35:
	.loc 1 59 1 is_stmt 1
	nop
	popq	%rbp
	.cfi_restore 6
	.cfi_def_cfa 7, 8
	ret
	.cfi_endproc
.LFE15:
	.size	proc_init, .-proc_init
	.section	.rodata
.LC4:
	.string	"idle%ld"
.LC5:
	.string	"%s"
.LC6:
	.string	"C%ld P%ld "
.LC7:
	.string	"%s:%d %s(): "
.LC8:
	.string	"created %s\n"
.LC9:
	.string	"\033[0m"
	.text
	.globl	proc_idleproc_init
	.type	proc_idleproc_init, @function
proc_idleproc_init:
.LFB16:
	.loc 1 66 1
	.cfi_startproc
	pushq	%rbp
	.cfi_def_cfa_offset 16
	.cfi_offset 6, -16
	movq	%rsp, %rbp
	.cfi_def_cfa_register 6
	subq	$16, %rsp
	.loc 1 67 13
	movabsq	$idleproc, %rax
	movq	%rax, -8(%rbp)
	.loc 1 69 17
	movq	-8(%rbp), %rax
	movl	$0, (%rax)
	.loc 1 70 5
	movq	-8(%rbp), %rax
	addq	$264, %rax
	movq	%rax, %rdi
	movabsq	$list_init, %rax
	call	*%rax
.LVL2:
	.loc 1 71 5
	movq	-8(%rbp), %rax
	addq	$280, %rax
	movq	%rax, %rdi
	movabsq	$list_init, %rax
	call	*%rax
.LVL3:
	.loc 1 72 19
	movq	-8(%rbp), %rax
	movq	$0, 296(%rax)
	.loc 1 74 5
	movq	-8(%rbp), %rax
	addq	$320, %rax
	movq	%rax, %rdi
	movabsq	$list_link_init, %rax
	call	*%rax
.LVL4:
	.loc 1 75 5
	movq	-8(%rbp), %rax
	addq	$304, %rax
	movq	%rax, %rdi
	movabsq	$list_link_init, %rax
	call	*%rax
.LVL5:
	.loc 1 77 20
	movq	-8(%rbp), %rax
	movq	$0, 336(%rax)
	.loc 1 78 19
	movq	-8(%rbp), %rax
	movl	$0, 344(%rax)
	.loc 1 80 12
	movq	-8(%rbp), %rax
	addq	$360, %rax
	.loc 1 80 5
	movl	$24, %edx
	movl	$0, %esi
	movq	%rax, %rdi
	movabsq	$memset, %rax
	call	*%rax
.LVL6:
	.loc 1 82 20
	movl	$0, %eax
	movabsq	$pt_get, %rdx
	call	*%rdx
.LVL7:
	.loc 1 82 18
	movq	-8(%rbp), %rdx
	movq	%rax, 352(%rdx)
	.loc 1 83 21
	movabsq	$vmmap_create, %rax
	call	*%rax
.LVL8:
	.loc 1 83 19
	movq	-8(%rbp), %rdx
	movq	%rax, 664(%rdx)
	.loc 1 85 17
	movq	-8(%rbp), %rax
	movq	$0, 640(%rax)
	.loc 1 87 16
	movq	-8(%rbp), %rax
	addq	$384, %rax
	.loc 1 87 5
	movl	$256, %edx
	movl	$0, %esi
	movq	%rax, %rdi
	movabsq	$memset, %rax
	call	*%rax
.LVL9:
	.loc 1 90 5
	movabsq	$curcore, %rax
	movq	(%rax), %rdx
	leaq	-16(%rbp), %rax
	movq	%rdx, %rcx
	movabsq	$.LC4, %rdx
	movl	$8, %esi
	movq	%rax, %rdi
	movl	$0, %eax
	movabsq	$snprintf, %r8
	call	*%r8
.LVL10:
	.loc 1 91 17
	movq	-8(%rbp), %rax
	leaq	4(%rax), %rcx
	.loc 1 91 5
	leaq	-16(%rbp), %rax
	movl	$256, %edx
	movq	%rax, %rsi
	movq	%rcx, %rdi
	movabsq	$strncpy, %rax
	call	*%rax
.LVL11:
	.loc 1 92 37
	movq	-8(%rbp), %rax
	movb	$0, 259(%rax)
	.loc 1 94 5
	movabsq	$dbg_modes, %rax
	movq	(%rax), %rax
	andl	$2048, %eax
	testq	%rax, %rax
	je	.L37
	.loc 1 94 5 is_stmt 0 discriminator 1
	movl	$2048, %edi
	movabsq	$dbg_color, %rax
	call	*%rax
.LVL12:
	movq	%rax, %rsi
	movabsq	$.LC5, %rax
	movq	%rax, %rdi
	movl	$0, %eax
	movabsq	$dbg_print, %rdx
	call	*%rdx
.LVL13:
	movabsq	$curproc, %rax
	movq	(%rax), %rax
	testq	%rax, %rax
	je	.L38
	.loc 1 94 5 discriminator 2
	movabsq	$curproc, %rax
	movq	(%rax), %rax
	movl	(%rax), %eax
	cltq
	jmp	.L39
.L38:
	.loc 1 94 5 discriminator 3
	movq	$-1, %rax
.L39:
	.loc 1 94 5 discriminator 5
	movabsq	$curcore, %rdx
	movq	(%rdx), %rcx
	movq	%rax, %rdx
	movq	%rcx, %rsi
	movabsq	$.LC6, %rax
	movq	%rax, %rdi
	movl	$0, %eax
	movabsq	$dbg_print, %rcx
	call	*%rcx
.LVL14:
	movabsq	$__func__.10, %rax
	movq	%rax, %rcx
	movl	$94, %edx
	movabsq	$.LC3, %rax
	movq	%rax, %rsi
	movabsq	$.LC7, %rax
	movq	%rax, %rdi
	movl	$0, %eax
	movabsq	$dbg_print, %r8
	call	*%r8
.LVL15:
	movq	-8(%rbp), %rax
	addq	$4, %rax
	movq	%rax, %rsi
	movabsq	$.LC8, %rax
	movq	%rax, %rdi
	movl	$0, %eax
	movabsq	$dbg_print, %rdx
	call	*%rdx
.LVL16:
	movabsq	$.LC9, %rax
	movq	%rax, %rsi
	movabsq	$.LC5, %rax
	movq	%rax, %rdi
	movl	$0, %eax
	movabsq	$dbg_print, %rdx
	call	*%rdx
.LVL17:
.L37:
	.loc 1 95 13 is_stmt 1
	movabsq	$curproc, %rax
	movabsq	$idleproc, %rcx
	movq	%rcx, (%rax)
	.loc 1 96 12
	movabsq	$curthr, %rax
	movq	$0, (%rax)
	.loc 1 97 1
	nop
	leave
	.cfi_restore 6
	.cfi_def_cfa 7, 8
	ret
	.cfi_endproc
.LFE16:
	.size	proc_idleproc_init, .-proc_idleproc_init
	.data
	.align 4
	.type	next_pid, @object
	.size	next_pid, 4
next_pid:
	.long	1
	.section	.rodata
.LC10:
	.string	"pid"
	.text
	.type	_proc_getid, @function
_proc_getid:
.LFB17:
	.loc 1 108 1
	.cfi_startproc
	pushq	%rbp
	.cfi_def_cfa_offset 16
	.cfi_offset 6, -16
	movq	%rsp, %rbp
	.cfi_def_cfa_register 6
	subq	$32, %rsp
	.loc 1 109 11
	movabsq	$next_pid, %rax
	movl	(%rax), %eax
	movl	%eax, -4(%rbp)
.L41:
.LBB6:
	.loc 1 111 5
	movabsq	$proc_list, %rax
	movq	(%rax), %rax
	subq	$304, %rax
	movq	%rax, -16(%rbp)
	movq	-16(%rbp), %rax
	movq	304(%rax), %rax
	subq	$304, %rax
	movq	%rax, -24(%rbp)
	jmp	.L42
.L48:
	.loc 1 113 14
	movq	-16(%rbp), %rax
	movl	(%rax), %eax
	.loc 1 113 12
	cmpl	%eax, -4(%rbp)
	jne	.L43
	.loc 1 115 49
	cmpl	$65535, -4(%rbp)
	je	.L44
	.loc 1 115 49 is_stmt 0 discriminator 1
	movl	-4(%rbp), %eax
	addl	$1, %eax
	jmp	.L45
.L44:
	.loc 1 115 49 discriminator 2
	movl	$1, %eax
.L45:
	.loc 1 115 17 is_stmt 1 discriminator 4
	movl	%eax, -4(%rbp)
	.loc 1 116 21 discriminator 4
	movabsq	$next_pid, %rax
	movl	(%rax), %eax
	.loc 1 116 16 discriminator 4
	cmpl	%eax, -4(%rbp)
	jne	.L41
	.loc 1 118 24
	movl	$-1, %eax
	jmp	.L47
.L43:
	.loc 1 111 5 discriminator 2
	movq	-24(%rbp), %rax
	movq	%rax, -16(%rbp)
	movq	-16(%rbp), %rax
	movq	304(%rax), %rax
	subq	$304, %rax
	movq	%rax, -24(%rbp)
.L42:
	.loc 1 111 5 is_stmt 0 discriminator 1
	movq	-16(%rbp), %rax
	leaq	304(%rax), %rdx
	movabsq	$proc_list, %rax
	cmpq	%rax, %rdx
	jne	.L48
.LBE6:
	.loc 1 126 46 is_stmt 1
	cmpl	$65535, -4(%rbp)
	je	.L49
	.loc 1 126 46 is_stmt 0 discriminator 1
	movl	-4(%rbp), %eax
	addl	$1, %eax
	jmp	.L50
.L49:
	.loc 1 126 46 discriminator 2
	movl	$1, %eax
.L50:
	.loc 1 126 14 is_stmt 1 discriminator 4
	movabsq	$next_pid, %rdx
	movl	%eax, (%rdx)
	.loc 1 127 5 discriminator 4
	cmpl	$0, -4(%rbp)
	jne	.L51
	.loc 1 127 5 is_stmt 0 discriminator 1
	movabsq	$.LC10, %r8
	movabsq	$.LC2, %rax
	movq	%rax, %rcx
	movabsq	$__func__.9, %rax
	movq	%rax, %rdx
	movl	$127, %esi
	movabsq	$.LC3, %rax
	movq	%rax, %rdi
	movl	$0, %eax
	movabsq	$dbg_panic, %r9
	call	*%r9
.LVL18:
.L51:
	.loc 1 128 12 is_stmt 1
	movl	-4(%rbp), %eax
.L47:
	.loc 1 129 1
	leave
	.cfi_restore 6
	.cfi_def_cfa 7, 8
	ret
	.cfi_endproc
.LFE17:
	.size	_proc_getid, .-_proc_getid
	.globl	proc_lookup
	.type	proc_lookup, @function
proc_lookup:
.LFB18:
	.loc 1 136 1
	.cfi_startproc
	pushq	%rbp
	.cfi_def_cfa_offset 16
	.cfi_offset 6, -16
	movq	%rsp, %rbp
	.cfi_def_cfa_register 6
	subq	$24, %rsp
	movl	%edi, -20(%rbp)
	.loc 1 137 8
	cmpl	$0, -20(%rbp)
	jne	.L53
	.loc 1 139 16
	movabsq	$idleproc, %rax
	jmp	.L54
.L53:
.LBB7:
	.loc 1 141 5
	movabsq	$proc_list, %rax
	movq	(%rax), %rax
	subq	$304, %rax
	movq	%rax, -8(%rbp)
	movq	-8(%rbp), %rax
	movq	304(%rax), %rax
	subq	$304, %rax
	movq	%rax, -16(%rbp)
	jmp	.L55
.L57:
	.loc 1 143 14
	movq	-8(%rbp), %rax
	movl	(%rax), %eax
	.loc 1 143 12
	cmpl	%eax, -20(%rbp)
	jne	.L56
	.loc 1 145 20
	movq	-8(%rbp), %rax
	jmp	.L54
.L56:
	.loc 1 141 5 discriminator 2
	movq	-16(%rbp), %rax
	movq	%rax, -8(%rbp)
	movq	-8(%rbp), %rax
	movq	304(%rax), %rax
	subq	$304, %rax
	movq	%rax, -16(%rbp)
.L55:
	.loc 1 141 5 is_stmt 0 discriminator 1
	movq	-8(%rbp), %rax
	leaq	304(%rax), %rdx
	movabsq	$proc_list, %rax
	cmpq	%rax, %rdx
	jne	.L57
.LBE7:
	.loc 1 148 12 is_stmt 1
	movl	$0, %eax
.L54:
	.loc 1 149 1
	leave
	.cfi_restore 6
	.cfi_def_cfa 7, 8
	ret
	.cfi_endproc
.LFE18:
	.size	proc_lookup, .-proc_lookup
	.section	.rodata
	.align 8
.LC11:
	.string	"Could not allocate PID for new process.\n"
.LC12:
	.string	"pid != PID_IDLE"
	.align 8
.LC13:
	.string	"pid != PID_INIT || curproc->p_pid == PID_IDLE"
.LC14:
	.string	"!proc_initproc"
.LC15:
	.string	"unnamed"
.LC16:
	.string	"created P%d (%s)\n"
	.text
	.globl	proc_create
	.type	proc_create, @function
proc_create:
.LFB19:
	.loc 1 174 1
	.cfi_startproc
	pushq	%rbp
	.cfi_def_cfa_offset 16
	.cfi_offset 6, -16
	movq	%rsp, %rbp
	.cfi_def_cfa_register 6
	subq	$48, %rsp
	movq	%rdi, -40(%rbp)
	.loc 1 176 17
	movl	$0, %eax
	movabsq	$_proc_getid, %rdx
	call	*%rdx
.LVL19:
	movl	%eax, -12(%rbp)
	.loc 1 177 8
	cmpl	$0, -12(%rbp)
	jns	.L59
	.loc 1 179 9
	movabsq	$dbg_modes, %rax
	movq	(%rax), %rax
	andl	$2048, %eax
	testq	%rax, %rax
	je	.L60
	.loc 1 179 9 is_stmt 0 discriminator 1
	movl	$2048, %edi
	movabsq	$dbg_color, %rax
	call	*%rax
.LVL20:
	movq	%rax, %rsi
	movabsq	$.LC5, %rax
	movq	%rax, %rdi
	movl	$0, %eax
	movabsq	$dbg_print, %rdx
	call	*%rdx
.LVL21:
	movabsq	$curproc, %rax
	movq	(%rax), %rax
	testq	%rax, %rax
	je	.L61
	.loc 1 179 9 discriminator 2
	movabsq	$curproc, %rax
	movq	(%rax), %rax
	movl	(%rax), %eax
	cltq
	jmp	.L62
.L61:
	.loc 1 179 9 discriminator 3
	movq	$-1, %rax
.L62:
	.loc 1 179 9 discriminator 5
	movabsq	$curcore, %rdx
	movq	(%rdx), %rcx
	movq	%rax, %rdx
	movq	%rcx, %rsi
	movabsq	$.LC6, %rax
	movq	%rax, %rdi
	movl	$0, %eax
	movabsq	$dbg_print, %rcx
	call	*%rcx
.LVL22:
	movabsq	$__func__.8, %rax
	movq	%rax, %rcx
	movl	$179, %edx
	movabsq	$.LC3, %rax
	movq	%rax, %rsi
	movabsq	$.LC7, %rax
	movq	%rax, %rdi
	movl	$0, %eax
	movabsq	$dbg_print, %r8
	call	*%r8
.LVL23:
	movabsq	$.LC11, %rax
	movq	%rax, %rdi
	movl	$0, %eax
	movabsq	$dbg_print, %rdx
	call	*%rdx
.LVL24:
	movabsq	$.LC9, %rax
	movq	%rax, %rsi
	movabsq	$.LC5, %rax
	movq	%rax, %rdi
	movl	$0, %eax
	movabsq	$dbg_print, %rdx
	call	*%rdx
.LVL25:
.L60:
	.loc 1 180 16 is_stmt 1
	movl	$0, %eax
	jmp	.L63
.L59:
	.loc 1 182 5
	cmpl	$0, -12(%rbp)
	jne	.L64
	.loc 1 182 5 is_stmt 0 discriminator 1
	movabsq	$.LC12, %r8
	movabsq	$.LC2, %rax
	movq	%rax, %rcx
	movabsq	$__func__.8, %rax
	movq	%rax, %rdx
	movl	$182, %esi
	movabsq	$.LC3, %rax
	movq	%rax, %rdi
	movl	$0, %eax
	movabsq	$dbg_panic, %r9
	call	*%r9
.LVL26:
.L64:
	.loc 1 183 5 is_stmt 1
	cmpl	$1, -12(%rbp)
	jne	.L65
	.loc 1 183 5 is_stmt 0 discriminator 1
	movabsq	$curproc, %rax
	movq	(%rax), %rax
	movl	(%rax), %eax
	testl	%eax, %eax
	je	.L65
	.loc 1 183 5 discriminator 2
	movabsq	$.LC13, %r8
	movabsq	$.LC2, %rax
	movq	%rax, %rcx
	movabsq	$__func__.8, %rax
	movq	%rax, %rdx
	movl	$183, %esi
	movabsq	$.LC3, %rax
	movq	%rax, %rdi
	movl	$0, %eax
	movabsq	$dbg_panic, %r9
	call	*%r9
.LVL27:
.L65:
	.loc 1 185 20 is_stmt 1
	movabsq	$proc_allocator, %rax
	movq	(%rax), %rax
	movq	%rax, %rdi
	movabsq	$slab_obj_alloc, %rax
	call	*%rax
.LVL28:
	movq	%rax, -24(%rbp)
	.loc 1 186 8
	cmpq	$0, -24(%rbp)
	jne	.L66
	.loc 1 187 16
	movl	$0, %eax
	jmp	.L63
.L66:
	.loc 1 189 17
	movq	-24(%rbp), %rax
	movl	-12(%rbp), %edx
	movl	%edx, (%rax)
	.loc 1 191 20
	movl	$0, %eax
	movabsq	$pt_create, %rdx
	call	*%rdx
.LVL29:
	.loc 1 191 18
	movq	-24(%rbp), %rdx
	movq	%rax, 352(%rdx)
	.loc 1 192 14
	movq	-24(%rbp), %rax
	movq	352(%rax), %rax
	.loc 1 192 8
	testq	%rax, %rax
	jne	.L67
	.loc 1 194 9
	movq	-24(%rbp), %rax
	movq	%rax, %rdi
	movabsq	$proc_destroy, %rax
	call	*%rax
.LVL30:
	.loc 1 195 16
	movl	$0, %eax
	jmp	.L63
.L67:
	.loc 1 198 5
	movq	-24(%rbp), %rax
	addq	$264, %rax
	movq	%rax, %rdi
	movabsq	$list_init, %rax
	call	*%rax
.LVL31:
	.loc 1 199 5
	movq	-24(%rbp), %rax
	addq	$280, %rax
	movq	%rax, %rdi
	movabsq	$list_init, %rax
	call	*%rax
.LVL32:
	.loc 1 200 19
	movabsq	$curproc, %rax
	movq	(%rax), %rdx
	movq	-24(%rbp), %rax
	movq	%rdx, 296(%rax)
	.loc 1 202 20
	movq	-24(%rbp), %rax
	movq	$0, 336(%rax)
	.loc 1 203 19
	movq	-24(%rbp), %rax
	movl	$0, 344(%rax)
	.loc 1 204 5
	movq	-24(%rbp), %rax
	addq	$360, %rax
	movq	%rax, %rdi
	movabsq	$sched_queue_init, %rax
	call	*%rax
.LVL33:
	.loc 1 206 13
	movq	-24(%rbp), %rax
	movq	296(%rax), %rax
	.loc 1 206 8
	testq	%rax, %rax
	je	.L68
	.loc 1 208 9
	movq	-24(%rbp), %rax
	leaq	320(%rax), %rdx
	.loc 1 208 31
	movq	-24(%rbp), %rax
	movq	296(%rax), %rax
	.loc 1 208 9
	addq	$280, %rax
	movq	%rdx, %rsi
	movq	%rax, %rdi
	movabsq	$list_insert_tail, %rax
	call	*%rax
.LVL34:
.L68:
	.loc 1 211 5
	movq	-24(%rbp), %rax
	addq	$304, %rax
	movq	%rax, %rsi
	movabsq	$proc_list, %rax
	movq	%rax, %rdi
	movabsq	$list_insert_tail, %rax
	call	*%rax
.LVL35:
	.loc 1 213 13
	movq	-24(%rbp), %rax
	movl	(%rax), %eax
	.loc 1 213 8
	cmpl	$1, %eax
	jne	.L69
	.loc 1 215 9
	movabsq	$proc_initproc, %rax
	movq	(%rax), %rax
	testq	%rax, %rax
	je	.L70
	.loc 1 215 9 is_stmt 0 discriminator 1
	movabsq	$.LC14, %r8
	movabsq	$.LC2, %rax
	movq	%rax, %rcx
	movabsq	$__func__.8, %rax
	movq	%rax, %rdx
	movl	$215, %esi
	movabsq	$.LC3, %rax
	movq	%rax, %rdi
	movl	$0, %eax
	movabsq	$dbg_panic, %r9
	call	*%r9
.LVL36:
.L70:
	.loc 1 216 23 is_stmt 1
	movabsq	$proc_initproc, %rdx
	movq	-24(%rbp), %rax
	movq	%rax, (%rdx)
.L69:
	.loc 1 219 8
	cmpq	$0, -40(%rbp)
	jne	.L71
	.loc 1 221 14
	movabsq	$.LC15, %rax
	movq	%rax, -40(%rbp)
.L71:
	.loc 1 223 17
	movq	-24(%rbp), %rax
	leaq	4(%rax), %rcx
	.loc 1 223 5
	movq	-40(%rbp), %rax
	movl	$256, %edx
	movq	%rax, %rsi
	movq	%rcx, %rdi
	movabsq	$strncpy, %rax
	call	*%rax
.LVL37:
	.loc 1 224 37
	movq	-24(%rbp), %rax
	movb	$0, 259(%rax)
	.loc 1 227 31
	movq	-24(%rbp), %rax
	movq	296(%rax), %rax
	.loc 1 227 40
	leaq	384(%rax), %rcx
	.loc 1 227 16
	movq	-24(%rbp), %rax
	addq	$384, %rax
	.loc 1 227 5
	movl	$256, %edx
	movq	%rcx, %rsi
	movq	%rax, %rdi
	movabsq	$memcpy, %rax
	call	*%rax
.LVL38:
.LBB8:
	.loc 1 228 17
	movq	$0, -8(%rbp)
	.loc 1 228 5
	jmp	.L72
.L74:
	.loc 1 229 26
	movq	-24(%rbp), %rax
	movq	-8(%rbp), %rdx
	addq	$48, %rdx
	movq	(%rax,%rdx,8), %rax
	.loc 1 229 12
	testq	%rax, %rax
	je	.L73
	.loc 1 230 31
	movq	-24(%rbp), %rax
	movq	-8(%rbp), %rdx
	addq	$48, %rdx
	movq	(%rax,%rdx,8), %rax
	.loc 1 230 13
	movq	%rax, %rdi
	movabsq	$fref, %rax
	call	*%rax
.LVL39:
.L73:
	.loc 1 228 37 discriminator 2
	addq	$1, -8(%rbp)
.L72:
	.loc 1 228 26 discriminator 1
	cmpq	$31, -8(%rbp)
	jbe	.L74
.LBE8:
	.loc 1 232 16
	movabsq	$curproc, %rax
	movq	(%rax), %rax
	movq	640(%rax), %rax
	.loc 1 232 8
	testq	%rax, %rax
	je	.L75
	.loc 1 234 22
	movabsq	$curproc, %rax
	movq	(%rax), %rax
	movq	640(%rax), %rax
	.loc 1 234 9
	movq	%rax, %rdi
	movabsq	$vlock, %rax
	call	*%rax
.LVL40:
	.loc 1 235 35
	movabsq	$curproc, %rax
	movq	(%rax), %rax
	movq	640(%rax), %rdx
	.loc 1 235 26
	movq	-24(%rbp), %rax
	movq	%rdx, 640(%rax)
	.loc 1 235 18
	movq	-24(%rbp), %rax
	movq	640(%rax), %rax
	.loc 1 235 9
	movq	%rax, %rdi
	movabsq	$vref, %rax
	call	*%rax
.LVL41:
	.loc 1 236 24
	movabsq	$curproc, %rax
	movq	(%rax), %rax
	movq	640(%rax), %rax
	.loc 1 236 9
	movq	%rax, %rdi
	movabsq	$vunlock, %rax
	call	*%rax
.LVL42:
	jmp	.L76
.L75:
	.loc 1 240 21
	movq	-24(%rbp), %rax
	movq	$0, 640(%rax)
.L76:
	.loc 1 254 5
	movabsq	$dbg_modes, %rax
	movq	(%rax), %rax
	andl	$2048, %eax
	testq	%rax, %rax
	je	.L77
	.loc 1 254 5 is_stmt 0 discriminator 1
	movl	$2048, %edi
	movabsq	$dbg_color, %rax
	call	*%rax
.LVL43:
	movq	%rax, %rsi
	movabsq	$.LC5, %rax
	movq	%rax, %rdi
	movl	$0, %eax
	movabsq	$dbg_print, %rdx
	call	*%rdx
.LVL44:
	movabsq	$curproc, %rax
	movq	(%rax), %rax
	testq	%rax, %rax
	je	.L78
	.loc 1 254 5 discriminator 2
	movabsq	$curproc, %rax
	movq	(%rax), %rax
	movl	(%rax), %eax
	cltq
	jmp	.L79
.L78:
	.loc 1 254 5 discriminator 3
	movq	$-1, %rax
.L79:
	.loc 1 254 5 discriminator 5
	movabsq	$curcore, %rdx
	movq	(%rdx), %rcx
	movq	%rax, %rdx
	movq	%rcx, %rsi
	movabsq	$.LC6, %rax
	movq	%rax, %rdi
	movl	$0, %eax
	movabsq	$dbg_print, %rcx
	call	*%rcx
.LVL45:
	movabsq	$__func__.8, %rax
	movq	%rax, %rcx
	movl	$254, %edx
	movabsq	$.LC3, %rax
	movq	%rax, %rsi
	movabsq	$.LC7, %rax
	movq	%rax, %rdi
	movl	$0, %eax
	movabsq	$dbg_print, %r8
	call	*%r8
.LVL46:
	movq	-24(%rbp), %rax
	leaq	4(%rax), %rdx
	movq	-24(%rbp), %rax
	movl	(%rax), %eax
	movl	%eax, %esi
	movabsq	$.LC16, %rax
	movq	%rax, %rdi
	movl	$0, %eax
	movabsq	$dbg_print, %rcx
	call	*%rcx
.LVL47:
	movabsq	$.LC9, %rax
	movq	%rax, %rsi
	movabsq	$.LC5, %rax
	movq	%rax, %rdi
	movl	$0, %eax
	movabsq	$dbg_print, %rdx
	call	*%rdx
.LVL48:
.L77:
	.loc 1 255 12 is_stmt 1
	movq	-24(%rbp), %rax
.L63:
	.loc 1 258 1
	leave
	.cfi_restore 6
	.cfi_def_cfa 7, 8
	ret
	.cfi_endproc
.LFE19:
	.size	proc_create, .-proc_create
	.section	.rodata
.LC17:
	.string	"1 <= curproc->p_pid"
.LC18:
	.string	"curproc->p_pproc"
	.align 8
.LC19:
	.string	"(curproc->p_pid != PID_INIT || list_empty(&curproc->p_children)) && \"caught init exiting with children\""
.LC20:
	.string	"child->p_pproc == curproc"
	.text
	.globl	proc_cleanup
	.type	proc_cleanup, @function
proc_cleanup:
.LFB20:
	.loc 1 278 1
	.cfi_startproc
	pushq	%rbp
	.cfi_def_cfa_offset 16
	.cfi_offset 6, -16
	movq	%rsp, %rbp
	.cfi_def_cfa_register 6
	subq	$48, %rsp
	movq	%rdi, -40(%rbp)
	.loc 1 280 5
	movabsq	$curproc, %rax
	movq	(%rax), %rax
	movl	(%rax), %eax
	testl	%eax, %eax
	jg	.L81
	.loc 1 280 5 is_stmt 0 discriminator 1
	movabsq	$.LC17, %r8
	movabsq	$.LC2, %rax
	movq	%rax, %rcx
	movabsq	$__func__.7, %rax
	movq	%rax, %rdx
	movl	$280, %esi
	movabsq	$.LC3, %rax
	movq	%rax, %rdi
	movl	$0, %eax
	movabsq	$dbg_panic, %r9
	call	*%r9
.LVL49:
.L81:
	.loc 1 281 5 is_stmt 1
	movabsq	$curproc, %rax
	movq	(%rax), %rax
	movq	296(%rax), %rax
	testq	%rax, %rax
	jne	.L82
	.loc 1 281 5 is_stmt 0 discriminator 1
	movabsq	$.LC18, %r8
	movabsq	$.LC2, %rax
	movq	%rax, %rcx
	movabsq	$__func__.7, %rax
	movq	%rax, %rdx
	movl	$281, %esi
	movabsq	$.LC3, %rax
	movq	%rax, %rdi
	movl	$0, %eax
	movabsq	$dbg_panic, %r9
	call	*%r9
.LVL50:
.L82:
.LBB9:
	.loc 1 284 14 is_stmt 1
	movl	$0, -4(%rbp)
	.loc 1 284 5
	jmp	.L83
.L84:
	.loc 1 286 9 discriminator 3
	movl	-4(%rbp), %eax
	movl	%eax, %edi
	movabsq	$do_close, %rax
	call	*%rax
.LVL51:
	.loc 1 284 37 discriminator 3
	addl	$1, -4(%rbp)
.L83:
	.loc 1 284 25 discriminator 1
	cmpl	$31, -4(%rbp)
	jle	.L84
.LBE9:
	.loc 1 288 16
	movabsq	$curproc, %rax
	movq	(%rax), %rax
	movq	640(%rax), %rax
	.loc 1 288 8
	testq	%rax, %rax
	je	.L85
	.loc 1 290 22
	movabsq	$curproc, %rax
	movq	(%rax), %rax
	.loc 1 290 14
	addq	$640, %rax
	.loc 1 290 9
	movq	%rax, %rdi
	movabsq	$vput, %rax
	call	*%rax
.LVL52:
.L85:
	.loc 1 298 5
	movabsq	$curproc, %rax
	movq	(%rax), %rax
	movl	(%rax), %eax
	cmpl	$1, %eax
	jne	.L86
	.loc 1 298 5 is_stmt 0 discriminator 1
	movabsq	$curproc, %rax
	movq	(%rax), %rax
	addq	$280, %rax
	movq	%rax, %rdi
	movabsq	$list_empty, %rax
	call	*%rax
.LVL53:
	testq	%rax, %rax
	jne	.L86
	.loc 1 298 5 discriminator 5
	movabsq	$.LC19, %r8
	movabsq	$.LC2, %rax
	movq	%rax, %rcx
	movabsq	$__func__.7, %rax
	movq	%rax, %rdx
	movl	$298, %esi
	movabsq	$.LC3, %rax
	movq	%rax, %rdi
	movl	$0, %eax
	movabsq	$dbg_panic, %r9
	call	*%r9
.LVL54:
.L86:
	.loc 1 300 16 is_stmt 1
	movabsq	$curproc, %rax
	movq	(%rax), %rax
	movl	(%rax), %eax
	.loc 1 300 8
	cmpl	$1, %eax
	je	.L87
.LBB10:
	.loc 1 302 9
	movabsq	$curproc, %rax
	movq	(%rax), %rax
	movq	280(%rax), %rax
	subq	$320, %rax
	movq	%rax, -16(%rbp)
	movq	-16(%rbp), %rax
	movq	320(%rax), %rax
	subq	$320, %rax
	movq	%rax, -24(%rbp)
	jmp	.L88
.L90:
	.loc 1 304 13
	movq	-16(%rbp), %rax
	movq	296(%rax), %rdx
	movabsq	$curproc, %rax
	movq	(%rax), %rax
	cmpq	%rax, %rdx
	je	.L89
	.loc 1 304 13 is_stmt 0 discriminator 1
	movabsq	$.LC20, %r8
	movabsq	$.LC2, %rax
	movq	%rax, %rcx
	movabsq	$__func__.7, %rax
	movq	%rax, %rdx
	movl	$304, %esi
	movabsq	$.LC3, %rax
	movq	%rax, %rdi
	movl	$0, %eax
	movabsq	$dbg_panic, %r9
	call	*%r9
.LVL55:
.L89:
	.loc 1 305 28 is_stmt 1 discriminator 2
	movabsq	$proc_initproc, %rax
	movq	(%rax), %rdx
	movq	-16(%rbp), %rax
	movq	%rdx, 296(%rax)
	.loc 1 306 13 discriminator 2
	movq	-16(%rbp), %rax
	addq	$320, %rax
	movq	%rax, %rdi
	movabsq	$list_remove, %rax
	call	*%rax
.LVL56:
	.loc 1 307 13 discriminator 2
	movq	-16(%rbp), %rax
	leaq	320(%rax), %rdx
	.loc 1 307 46 discriminator 2
	movabsq	$proc_initproc, %rax
	movq	(%rax), %rax
	.loc 1 307 32 discriminator 2
	addq	$280, %rax
	.loc 1 307 13 discriminator 2
	movq	%rdx, %rsi
	movq	%rax, %rdi
	movabsq	$list_insert_before, %rax
	call	*%rax
.LVL57:
	.loc 1 302 9 discriminator 2
	movq	-24(%rbp), %rax
	movq	%rax, -16(%rbp)
	movq	-16(%rbp), %rax
	movq	320(%rax), %rax
	subq	$320, %rax
	movq	%rax, -24(%rbp)
.L88:
	.loc 1 302 9 is_stmt 0 discriminator 1
	movq	-16(%rbp), %rax
	leaq	320(%rax), %rdx
	movabsq	$curproc, %rax
	movq	(%rax), %rax
	addq	$280, %rax
	cmpq	%rax, %rdx
	jne	.L90
.L87:
.LBE10:
	.loc 1 312 12 is_stmt 1
	movabsq	$curproc, %rax
	movq	(%rax), %rax
	.loc 1 312 22
	movl	$1, 344(%rax)
	.loc 1 313 12
	movabsq	$curproc, %rax
	movq	(%rax), %rax
	.loc 1 313 23
	movq	-40(%rbp), %rdx
	movq	%rdx, 336(%rax)
	.loc 1 315 5
	movabsq	$curproc, %rax
	movq	(%rax), %rax
	movq	296(%rax), %rax
	testq	%rax, %rax
	jne	.L91
	.loc 1 315 5 is_stmt 0 discriminator 1
	movabsq	$.LC18, %r8
	movabsq	$.LC2, %rax
	movq	%rax, %rcx
	movabsq	$__func__.7, %rax
	movq	%rax, %rdx
	movl	$315, %esi
	movabsq	$.LC3, %rax
	movq	%rax, %rdi
	movl	$0, %eax
	movabsq	$dbg_panic, %r9
	call	*%r9
.LVL58:
.L91:
	.loc 1 317 16 is_stmt 1
	movabsq	$curproc, %rax
	movq	(%rax), %rax
	movl	(%rax), %eax
	.loc 1 317 8
	cmpl	$1, %eax
	jne	.L93
	.loc 1 319 9
	movl	$0, %eax
	movabsq	$initproc_finish, %rdx
	call	*%rdx
.LVL59:
.L93:
	.loc 1 322 1
	nop
	leave
	.cfi_restore 6
	.cfi_def_cfa 7, 8
	ret
	.cfi_endproc
.LFE20:
	.size	proc_cleanup, .-proc_cleanup
	.section	.rodata
.LC21:
	.string	"mutex: %p\n"
	.align 8
.LC22:
	.string	"list_empty(&curthr->kt_mutexes)"
.LC23:
	.string	"!curthr->kt_wchan"
	.align 8
.LC24:
	.string	"!list_link_is_linked(&curthr->kt_qlink)"
.LC25:
	.string	"curthr->kt_proc == curproc"
	.align 8
.LC26:
	.string	"!preemption_enabled() && curthr->kt_state == KT_EXITED"
	.text
	.globl	proc_thread_exiting
	.type	proc_thread_exiting, @function
proc_thread_exiting:
.LFB21:
	.loc 1 339 1
	.cfi_startproc
	pushq	%rbp
	.cfi_def_cfa_offset 16
	.cfi_offset 6, -16
	movq	%rsp, %rbp
	.cfi_def_cfa_register 6
	subq	$32, %rsp
	movq	%rdi, -24(%rbp)
	.loc 1 342 5
	movl	$0, %eax
	movabsq	$preemption_disable, %rdx
	call	*%rdx
.LVL60:
	.loc 1 343 5
	movq	-24(%rbp), %rax
	movq	%rax, %rdi
	movabsq	$proc_cleanup, %rax
	call	*%rax
.LVL61:
.LBB11:
	.loc 1 345 5
	movabsq	$curthr, %rax
	movq	(%rax), %rax
	movq	136(%rax), %rax
	subq	$32, %rax
	movq	%rax, -8(%rbp)
	movq	-8(%rbp), %rax
	movq	32(%rax), %rax
	subq	$32, %rax
	movq	%rax, -16(%rbp)
	jmp	.L95
.L99:
	.loc 1 347 9
	movabsq	$dbg_modes, %rax
	movq	(%rax), %rax
	andl	$16384, %eax
	testq	%rax, %rax
	je	.L96
	.loc 1 347 9 is_stmt 0 discriminator 1
	movl	$16384, %edi
	movabsq	$dbg_color, %rax
	call	*%rax
.LVL62:
	movq	%rax, %rsi
	movabsq	$.LC5, %rax
	movq	%rax, %rdi
	movl	$0, %eax
	movabsq	$dbg_print, %rdx
	call	*%rdx
.LVL63:
	movabsq	$curproc, %rax
	movq	(%rax), %rax
	testq	%rax, %rax
	je	.L97
	.loc 1 347 9 discriminator 2
	movabsq	$curproc, %rax
	movq	(%rax), %rax
	movl	(%rax), %eax
	cltq
	jmp	.L98
.L97:
	.loc 1 347 9 discriminator 3
	movq	$-1, %rax
.L98:
	.loc 1 347 9 discriminator 5
	movabsq	$curcore, %rdx
	movq	(%rdx), %rcx
	movq	%rax, %rdx
	movq	%rcx, %rsi
	movabsq	$.LC6, %rax
	movq	%rax, %rdi
	movl	$0, %eax
	movabsq	$dbg_print, %rcx
	call	*%rcx
.LVL64:
	movabsq	$__func__.6, %rax
	movq	%rax, %rcx
	movl	$347, %edx
	movabsq	$.LC3, %rax
	movq	%rax, %rsi
	movabsq	$.LC7, %rax
	movq	%rax, %rdi
	movl	$0, %eax
	movabsq	$dbg_print, %r8
	call	*%r8
.LVL65:
	movq	-8(%rbp), %rax
	movq	%rax, %rsi
	movabsq	$.LC21, %rax
	movq	%rax, %rdi
	movl	$0, %eax
	movabsq	$dbg_print, %rdx
	call	*%rdx
.LVL66:
	movabsq	$.LC9, %rax
	movq	%rax, %rsi
	movabsq	$.LC5, %rax
	movq	%rax, %rdi
	movl	$0, %eax
	movabsq	$dbg_print, %rdx
	call	*%rdx
.LVL67:
.L96:
	.loc 1 345 5 is_stmt 1 discriminator 2
	movq	-16(%rbp), %rax
	movq	%rax, -8(%rbp)
	movq	-8(%rbp), %rax
	movq	32(%rax), %rax
	subq	$32, %rax
	movq	%rax, -16(%rbp)
.L95:
	.loc 1 345 5 is_stmt 0 discriminator 1
	movq	-8(%rbp), %rax
	leaq	32(%rax), %rdx
	movabsq	$curthr, %rax
	movq	(%rax), %rax
	addq	$136, %rax
	cmpq	%rax, %rdx
	jne	.L99
.LBE11:
	.loc 1 350 5 is_stmt 1
	movabsq	$curthr, %rax
	movq	(%rax), %rax
	addq	$136, %rax
	movq	%rax, %rdi
	movabsq	$list_empty, %rax
	call	*%rax
.LVL68:
	testq	%rax, %rax
	jne	.L100
	.loc 1 350 5 is_stmt 0 discriminator 1
	movabsq	$.LC22, %r8
	movabsq	$.LC2, %rax
	movq	%rax, %rcx
	movabsq	$__func__.6, %rax
	movq	%rax, %rdx
	movl	$350, %esi
	movabsq	$.LC3, %rax
	movq	%rax, %rdi
	movl	$0, %eax
	movabsq	$dbg_panic, %r9
	call	*%r9
.LVL69:
.L100:
	.loc 1 351 5 is_stmt 1
	movabsq	$curthr, %rax
	movq	(%rax), %rax
	movq	88(%rax), %rax
	testq	%rax, %rax
	je	.L101
	.loc 1 351 5 is_stmt 0 discriminator 1
	movabsq	$.LC23, %r8
	movabsq	$.LC2, %rax
	movq	%rax, %rcx
	movabsq	$__func__.6, %rax
	movq	%rax, %rdx
	movl	$351, %esi
	movabsq	$.LC3, %rax
	movq	%rax, %rdi
	movl	$0, %eax
	movabsq	$dbg_panic, %r9
	call	*%r9
.LVL70:
.L101:
	.loc 1 352 5 is_stmt 1
	movabsq	$curthr, %rax
	movq	(%rax), %rax
	addq	$120, %rax
	movq	%rax, %rdi
	movabsq	$list_link_is_linked, %rax
	call	*%rax
.LVL71:
	testq	%rax, %rax
	je	.L102
	.loc 1 352 5 is_stmt 0 discriminator 1
	movabsq	$.LC24, %r8
	movabsq	$.LC2, %rax
	movq	%rax, %rcx
	movabsq	$__func__.6, %rax
	movq	%rax, %rdx
	movl	$352, %esi
	movabsq	$.LC3, %rax
	movq	%rax, %rdi
	movl	$0, %eax
	movabsq	$dbg_panic, %r9
	call	*%r9
.LVL72:
.L102:
	.loc 1 353 5 is_stmt 1
	movabsq	$curthr, %rax
	movq	(%rax), %rax
	movq	72(%rax), %rdx
	movabsq	$curproc, %rax
	movq	(%rax), %rax
	cmpq	%rax, %rdx
	je	.L103
	.loc 1 353 5 is_stmt 0 discriminator 1
	movabsq	$.LC25, %r8
	movabsq	$.LC2, %rax
	movq	%rax, %rcx
	movabsq	$__func__.6, %rax
	movq	%rax, %rdx
	movl	$353, %esi
	movabsq	$.LC3, %rax
	movq	%rax, %rdi
	movl	$0, %eax
	movabsq	$dbg_panic, %r9
	call	*%r9
.LVL73:
.L103:
	.loc 1 355 11 is_stmt 1
	movabsq	$curthr, %rax
	movq	(%rax), %rax
	.loc 1 355 22
	movl	$5, 96(%rax)
	.loc 1 356 11
	movabsq	$curthr, %rax
	movq	(%rax), %rax
	.loc 1 356 23
	movq	-24(%rbp), %rdx
	movq	%rdx, 56(%rax)
	.loc 1 358 32
	movabsq	$curproc, %rax
	movq	(%rax), %rax
	movq	296(%rax), %rax
	.loc 1 358 5
	addq	$360, %rax
	movq	%rax, %rdi
	movabsq	$sched_broadcast_on, %rax
	call	*%rax
.LVL74:
	.loc 1 360 5
	movl	$0, %eax
	movabsq	$preemption_enabled, %rdx
	call	*%rdx
.LVL75:
	testq	%rax, %rax
	jne	.L104
	.loc 1 360 5 is_stmt 0 discriminator 2
	movabsq	$curthr, %rax
	movq	(%rax), %rax
	movl	96(%rax), %eax
	cmpl	$5, %eax
	je	.L105
.L104:
	.loc 1 360 5 discriminator 3
	movabsq	$.LC26, %r8
	movabsq	$.LC2, %rax
	movq	%rax, %rcx
	movabsq	$__func__.6, %rax
	movq	%rax, %rdx
	movl	$360, %esi
	movabsq	$.LC3, %rax
	movq	%rax, %rdi
	movl	$0, %eax
	movabsq	$dbg_panic, %r9
	call	*%r9
.LVL76:
.L105:
	.loc 1 362 5 is_stmt 1
	movl	$0, %edi
	movabsq	$sched_switch, %rax
	call	*%rax
.LVL77:
	.loc 1 364 1
	nop
	leave
	.cfi_restore 6
	.cfi_def_cfa 7, 8
	ret
	.cfi_endproc
.LFE21:
	.size	proc_thread_exiting, .-proc_thread_exiting
	.section	.rodata
.LC27:
	.string	"curproc && curproc != proc"
	.text
	.globl	proc_kill
	.type	proc_kill, @function
proc_kill:
.LFB22:
	.loc 1 373 1
	.cfi_startproc
	pushq	%rbp
	.cfi_def_cfa_offset 16
	.cfi_offset 6, -16
	movq	%rsp, %rbp
	.cfi_def_cfa_register 6
	subq	$32, %rsp
	movq	%rdi, -24(%rbp)
	movq	%rsi, -32(%rbp)
	.loc 1 375 5
	movabsq	$curproc, %rax
	movq	(%rax), %rax
	testq	%rax, %rax
	je	.L107
	.loc 1 375 5 is_stmt 0 discriminator 2
	movabsq	$curproc, %rax
	movq	(%rax), %rax
	cmpq	%rax, -24(%rbp)
	jne	.L108
.L107:
	.loc 1 375 5 discriminator 3
	movabsq	$.LC27, %r8
	movabsq	$.LC2, %rax
	movq	%rax, %rcx
	movabsq	$__func__.5, %rax
	movq	%rax, %rdx
	movl	$375, %esi
	movabsq	$.LC3, %rax
	movq	%rax, %rdi
	movl	$0, %eax
	movabsq	$dbg_panic, %r9
	call	*%r9
.LVL78:
.L108:
.LBB12:
	.loc 1 377 5 is_stmt 1
	movq	-24(%rbp), %rax
	movq	264(%rax), %rax
	subq	$104, %rax
	movq	%rax, -8(%rbp)
	movq	-8(%rbp), %rax
	movq	104(%rax), %rax
	subq	$104, %rax
	movq	%rax, -16(%rbp)
	jmp	.L109
.L110:
	.loc 1 379 9 discriminator 3
	movq	-32(%rbp), %rdx
	movq	-8(%rbp), %rax
	movq	%rdx, %rsi
	movq	%rax, %rdi
	movabsq	$kthread_cancel, %rax
	call	*%rax
.LVL79:
	.loc 1 377 5 discriminator 3
	movq	-16(%rbp), %rax
	movq	%rax, -8(%rbp)
	movq	-8(%rbp), %rax
	movq	104(%rax), %rax
	subq	$104, %rax
	movq	%rax, -16(%rbp)
.L109:
	.loc 1 377 5 is_stmt 0 discriminator 1
	movq	-8(%rbp), %rax
	leaq	104(%rax), %rdx
	movq	-24(%rbp), %rax
	addq	$264, %rax
	cmpq	%rax, %rdx
	jne	.L110
.LBE12:
	.loc 1 382 1 is_stmt 1
	nop
	nop
	leave
	.cfi_restore 6
	.cfi_def_cfa 7, 8
	ret
	.cfi_endproc
.LFE22:
	.size	proc_kill, .-proc_kill
	.globl	proc_kill_all
	.type	proc_kill_all, @function
proc_kill_all:
.LFB23:
	.loc 1 395 1
	.cfi_startproc
	pushq	%rbp
	.cfi_def_cfa_offset 16
	.cfi_offset 6, -16
	movq	%rsp, %rbp
	.cfi_def_cfa_register 6
	subq	$16, %rsp
.LBB13:
	.loc 1 397 5
	movabsq	$proc_list, %rax
	movq	(%rax), %rax
	subq	$304, %rax
	movq	%rax, -8(%rbp)
	movq	-8(%rbp), %rax
	movq	304(%rax), %rax
	subq	$304, %rax
	movq	%rax, -16(%rbp)
	jmp	.L112
.L114:
	.loc 1 399 18
	movabsq	$curproc, %rax
	movq	(%rax), %rax
	.loc 1 399 12
	cmpq	%rax, -8(%rbp)
	je	.L113
	.loc 1 399 36 discriminator 1
	movq	-8(%rbp), %rax
	movq	296(%rax), %rax
	.loc 1 399 45 discriminator 1
	movl	(%rax), %eax
	.loc 1 399 29 discriminator 1
	testl	%eax, %eax
	je	.L113
	.loc 1 401 13
	movq	-8(%rbp), %rax
	movq	$-1, %rsi
	movq	%rax, %rdi
	movabsq	$proc_kill, %rax
	call	*%rax
.LVL80:
.L113:
	.loc 1 397 5 discriminator 2
	movq	-16(%rbp), %rax
	movq	%rax, -8(%rbp)
	movq	-8(%rbp), %rax
	movq	304(%rax), %rax
	subq	$304, %rax
	movq	%rax, -16(%rbp)
.L112:
	.loc 1 397 5 is_stmt 0 discriminator 1
	movq	-8(%rbp), %rax
	leaq	304(%rax), %rdx
	movabsq	$proc_list, %rax
	cmpq	%rax, %rdx
	jne	.L114
.LBE13:
	.loc 1 405 5 is_stmt 1
	movl	$0, %edi
	movabsq	$do_exit, %rax
	call	*%rax
.LVL81:
	.loc 1 407 1
	nop
	leave
	.cfi_restore 6
	.cfi_def_cfa 7, 8
	ret
	.cfi_endproc
.LFE23:
	.size	proc_kill_all, .-proc_kill_all
	.section	.rodata
.LC28:
	.string	"destroying P%d\n"
.LC29:
	.string	"proc->p_pml4"
	.text
	.globl	proc_destroy
	.type	proc_destroy, @function
proc_destroy:
.LFB24:
	.loc 1 418 1
	.cfi_startproc
	pushq	%rbp
	.cfi_def_cfa_offset 16
	.cfi_offset 6, -16
	movq	%rsp, %rbp
	.cfi_def_cfa_register 6
	subq	$48, %rsp
	movq	%rdi, -40(%rbp)
	.loc 1 419 5
	movq	-40(%rbp), %rax
	addq	$304, %rax
	movq	%rax, %rdi
	movabsq	$list_remove, %rax
	call	*%rax
.LVL82:
.LBB14:
	.loc 1 421 5
	movq	-40(%rbp), %rax
	movq	264(%rax), %rax
	subq	$104, %rax
	movq	%rax, -8(%rbp)
	movq	-8(%rbp), %rax
	movq	104(%rax), %rax
	subq	$104, %rax
	movq	%rax, -16(%rbp)
	jmp	.L116
.L117:
	.loc 1 423 9 discriminator 3
	movq	-8(%rbp), %rax
	movq	%rax, %rdi
	movabsq	$kthread_destroy, %rax
	call	*%rax
.LVL83:
	.loc 1 421 5 discriminator 3
	movq	-16(%rbp), %rax
	movq	%rax, -8(%rbp)
	movq	-8(%rbp), %rax
	movq	104(%rax), %rax
	subq	$104, %rax
	movq	%rax, -16(%rbp)
.L116:
	.loc 1 421 5 is_stmt 0 discriminator 1
	movq	-8(%rbp), %rax
	leaq	104(%rax), %rdx
	movq	-40(%rbp), %rax
	addq	$264, %rax
	cmpq	%rax, %rdx
	jne	.L117
.LBE14:
.LBB15:
	.loc 1 427 14 is_stmt 1
	movl	$0, -20(%rbp)
	.loc 1 427 5
	jmp	.L118
.L120:
	.loc 1 429 26
	movq	-40(%rbp), %rax
	movl	-20(%rbp), %edx
	movslq	%edx, %rdx
	addq	$48, %rdx
	movq	(%rax,%rdx,8), %rax
	.loc 1 429 12
	testq	%rax, %rax
	je	.L119
	.loc 1 430 18
	movq	-40(%rbp), %rax
	leaq	384(%rax), %rdx
	.loc 1 430 32
	movl	-20(%rbp), %eax
	cltq
	salq	$3, %rax
	.loc 1 430 13
	addq	%rdx, %rax
	movq	%rax, %rdi
	movabsq	$fput, %rax
	call	*%rax
.LVL84:
.L119:
	.loc 1 427 37 discriminator 2
	addl	$1, -20(%rbp)
.L118:
	.loc 1 427 25 discriminator 1
	cmpl	$31, -20(%rbp)
	jle	.L120
.LBE15:
	.loc 1 432 13
	movq	-40(%rbp), %rax
	movq	640(%rax), %rax
	.loc 1 432 8
	testq	%rax, %rax
	je	.L121
	.loc 1 434 14
	movq	-40(%rbp), %rax
	addq	$640, %rax
	.loc 1 434 9
	movq	%rax, %rdi
	movabsq	$vput, %rax
	call	*%rax
.LVL85:
.L121:
	.loc 1 443 5
	movabsq	$dbg_modes, %rax
	movq	(%rax), %rax
	andl	$8388608, %eax
	testq	%rax, %rax
	je	.L122
	.loc 1 443 5 is_stmt 0 discriminator 1
	movl	$8388608, %edi
	movabsq	$dbg_color, %rax
	call	*%rax
.LVL86:
	movq	%rax, %rsi
	movabsq	$.LC5, %rax
	movq	%rax, %rdi
	movl	$0, %eax
	movabsq	$dbg_print, %rdx
	call	*%rdx
.LVL87:
	movabsq	$curproc, %rax
	movq	(%rax), %rax
	testq	%rax, %rax
	je	.L123
	.loc 1 443 5 discriminator 2
	movabsq	$curproc, %rax
	movq	(%rax), %rax
	movl	(%rax), %eax
	cltq
	jmp	.L124
.L123:
	.loc 1 443 5 discriminator 3
	movq	$-1, %rax
.L124:
	.loc 1 443 5 discriminator 5
	movabsq	$curcore, %rdx
	movq	(%rdx), %rcx
	movq	%rax, %rdx
	movq	%rcx, %rsi
	movabsq	$.LC6, %rax
	movq	%rax, %rdi
	movl	$0, %eax
	movabsq	$dbg_print, %rcx
	call	*%rcx
.LVL88:
	movabsq	$__func__.4, %rax
	movq	%rax, %rcx
	movl	$443, %edx
	movabsq	$.LC3, %rax
	movq	%rax, %rsi
	movabsq	$.LC7, %rax
	movq	%rax, %rdi
	movl	$0, %eax
	movabsq	$dbg_print, %r8
	call	*%r8
.LVL89:
	movq	-40(%rbp), %rax
	movl	(%rax), %eax
	movl	%eax, %esi
	movabsq	$.LC28, %rax
	movq	%rax, %rdi
	movl	$0, %eax
	movabsq	$dbg_print, %rdx
	call	*%rdx
.LVL90:
	movabsq	$.LC9, %rax
	movq	%rax, %rsi
	movabsq	$.LC5, %rax
	movq	%rax, %rdi
	movl	$0, %eax
	movabsq	$dbg_print, %rdx
	call	*%rdx
.LVL91:
.L122:
	.loc 1 445 5 is_stmt 1
	movq	-40(%rbp), %rax
	movq	352(%rax), %rax
	testq	%rax, %rax
	jne	.L125
	.loc 1 445 5 is_stmt 0 discriminator 1
	movabsq	$.LC29, %r8
	movabsq	$.LC2, %rax
	movq	%rax, %rcx
	movabsq	$__func__.4, %rax
	movq	%rax, %rdx
	movl	$445, %esi
	movabsq	$.LC3, %rax
	movq	%rax, %rdi
	movl	$0, %eax
	movabsq	$dbg_panic, %r9
	call	*%r9
.LVL92:
.L125:
	.loc 1 446 5 is_stmt 1
	movq	-40(%rbp), %rax
	movq	352(%rax), %rax
	movq	%rax, %rdi
	movabsq	$pt_destroy, %rax
	call	*%rax
.LVL93:
	.loc 1 448 5
	movabsq	$proc_allocator, %rax
	movq	(%rax), %rax
	movq	-40(%rbp), %rdx
	movq	%rdx, %rsi
	movq	%rax, %rdi
	movabsq	$slab_obj_free, %rax
	call	*%rax
.LVL94:
	.loc 1 449 1
	nop
	leave
	.cfi_restore 6
	.cfi_def_cfa 7, 8
	ret
	.cfi_endproc
.LFE24:
	.size	proc_destroy, .-proc_destroy
	.section	.rodata
	.align 8
.LC30:
	.string	"-1 == pid || proc->p_pid == pid"
	.text
	.globl	do_waitpid
	.type	do_waitpid, @function
do_waitpid:
.LFB25:
	.loc 1 480 1
	.cfi_startproc
	pushq	%rbp
	.cfi_def_cfa_offset 16
	.cfi_offset 6, -16
	movq	%rsp, %rbp
	.cfi_def_cfa_register 6
	subq	$48, %rsp
	movl	%edi, -36(%rbp)
	movq	%rsi, -48(%rbp)
	movl	%edx, -40(%rbp)
	.loc 1 483 8
	cmpl	$0, -36(%rbp)
	je	.L127
	.loc 1 483 14 discriminator 1
	cmpl	$-1, -36(%rbp)
	jl	.L127
	.loc 1 483 26 discriminator 2
	cmpl	$0, -40(%rbp)
	je	.L128
.L127:
	.loc 1 485 16
	movl	$-95, %eax
	jmp	.L129
.L128:
	.loc 1 488 13
	movq	$0, -8(%rbp)
.L138:
.LBB16:
	.loc 1 491 14
	movq	$0, -16(%rbp)
.LBB17:
	.loc 1 492 9
	movabsq	$curproc, %rax
	movq	(%rax), %rax
	movq	280(%rax), %rax
	subq	$320, %rax
	movq	%rax, -24(%rbp)
	movq	-24(%rbp), %rax
	movq	320(%rax), %rax
	subq	$320, %rax
	movq	%rax, -32(%rbp)
	jmp	.L130
.L137:
	.loc 1 494 26
	movq	-24(%rbp), %rax
	movl	(%rax), %eax
	.loc 1 494 16
	cmpl	%eax, -36(%rbp)
	jne	.L131
	.loc 1 496 30
	movq	-24(%rbp), %rax
	movl	344(%rax), %eax
	.loc 1 496 20
	cmpl	$1, %eax
	jne	.L142
	.loc 1 498 26
	movq	-24(%rbp), %rax
	movq	%rax, -8(%rbp)
	.loc 1 499 21
	jmp	.L133
.L131:
	.loc 1 503 21
	cmpl	$-1, -36(%rbp)
	jne	.L135
	.loc 1 505 30
	movq	-24(%rbp), %rax
	movl	344(%rax), %eax
	.loc 1 505 20
	cmpl	$1, %eax
	jne	.L136
	.loc 1 507 26
	movq	-24(%rbp), %rax
	movq	%rax, -8(%rbp)
	.loc 1 508 21
	jmp	.L133
.L136:
	.loc 1 510 23
	movq	$1, -16(%rbp)
.L135:
	.loc 1 492 9 discriminator 2
	movq	-32(%rbp), %rax
	movq	%rax, -24(%rbp)
	movq	-24(%rbp), %rax
	movq	320(%rax), %rax
	subq	$320, %rax
	movq	%rax, -32(%rbp)
.L130:
	.loc 1 492 9 is_stmt 0 discriminator 1
	movq	-24(%rbp), %rax
	leaq	320(%rax), %rdx
	movabsq	$curproc, %rax
	movq	(%rax), %rax
	addq	$280, %rax
	cmpq	%rax, %rdx
	jne	.L137
.LBE17:
	.loc 1 514 12 is_stmt 1
	cmpq	$0, -16(%rbp)
	jne	.L143
	.loc 1 516 20
	movl	$-10, %eax
	jmp	.L129
.L142:
.LBB18:
	.loc 1 501 17
	nop
	jmp	.L134
.L143:
.LBE18:
	.loc 1 518 5
	nop
.L134:
	.loc 1 519 32
	movabsq	$curproc, %rax
	movq	(%rax), %rax
	.loc 1 519 9
	addq	$360, %rax
	movq	%rax, %rdi
	movabsq	$sched_sleep_on, %rax
	call	*%rax
.LVL95:
.LBE16:
	.loc 1 490 5
	jmp	.L138
.L133:
	.loc 1 524 5
	cmpq	$0, -8(%rbp)
	jne	.L139
	.loc 1 524 5 is_stmt 0 discriminator 1
	movabsq	$.LC0, %r8
	movabsq	$.LC2, %rax
	movq	%rax, %rcx
	movabsq	$__func__.3, %rax
	movq	%rax, %rdx
	movl	$524, %esi
	movabsq	$.LC3, %rax
	movq	%rax, %rdi
	movl	$0, %eax
	movabsq	$dbg_panic, %r9
	call	*%r9
.LVL96:
.L139:
	.loc 1 525 5 is_stmt 1
	movq	-8(%rbp), %rax
	addq	$320, %rax
	movq	%rax, %rdi
	movabsq	$list_remove, %rax
	call	*%rax
.LVL97:
	.loc 1 527 5
	cmpl	$-1, -36(%rbp)
	je	.L140
	.loc 1 527 5 is_stmt 0 discriminator 1
	movq	-8(%rbp), %rax
	movl	(%rax), %eax
	cmpl	%eax, -36(%rbp)
	je	.L140
	.loc 1 527 5 discriminator 2
	movabsq	$.LC30, %r8
	movabsq	$.LC2, %rax
	movq	%rax, %rcx
	movabsq	$__func__.3, %rax
	movq	%rax, %rdx
	movl	$527, %esi
	movabsq	$.LC3, %rax
	movq	%rax, %rdi
	movl	$0, %eax
	movabsq	$dbg_panic, %r9
	call	*%r9
.LVL98:
.L140:
	.loc 1 528 9 is_stmt 1
	movq	-8(%rbp), %rax
	movl	(%rax), %eax
	movl	%eax, -36(%rbp)
	.loc 1 529 8
	cmpq	$0, -48(%rbp)
	je	.L141
	.loc 1 530 29
	movq	-8(%rbp), %rax
	movq	336(%rax), %rax
	.loc 1 530 19
	movzbl	%al, %edx
	.loc 1 530 17
	movq	-48(%rbp), %rax
	movl	%edx, (%rax)
.L141:
	.loc 1 533 5
	movq	-8(%rbp), %rax
	movq	%rax, %rdi
	movabsq	$proc_destroy, %rax
	call	*%rax
.LVL99:
	.loc 1 535 12
	movl	-36(%rbp), %eax
.L129:
	.loc 1 538 1
	leave
	.cfi_restore 6
	.cfi_def_cfa 7, 8
	ret
	.cfi_endproc
.LFE25:
	.size	do_waitpid, .-do_waitpid
	.section	.rodata
.LC31:
	.string	"exiting with status %lu\n"
	.text
	.globl	do_exit
	.type	do_exit, @function
do_exit:
.LFB26:
	.loc 1 546 1
	.cfi_startproc
	pushq	%rbp
	.cfi_def_cfa_offset 16
	.cfi_offset 6, -16
	movq	%rsp, %rbp
	.cfi_def_cfa_register 6
	subq	$16, %rsp
	movq	%rdi, -8(%rbp)
	.loc 1 548 5
	movabsq	$dbg_modes, %rax
	movq	(%rax), %rax
	andl	$2048, %eax
	testq	%rax, %rax
	je	.L145
	.loc 1 548 5 is_stmt 0 discriminator 1
	movl	$2048, %edi
	movabsq	$dbg_color, %rax
	call	*%rax
.LVL100:
	movq	%rax, %rsi
	movabsq	$.LC5, %rax
	movq	%rax, %rdi
	movl	$0, %eax
	movabsq	$dbg_print, %rdx
	call	*%rdx
.LVL101:
	movabsq	$curproc, %rax
	movq	(%rax), %rax
	testq	%rax, %rax
	je	.L146
	.loc 1 548 5 discriminator 2
	movabsq	$curproc, %rax
	movq	(%rax), %rax
	movl	(%rax), %eax
	cltq
	jmp	.L147
.L146:
	.loc 1 548 5 discriminator 3
	movq	$-1, %rax
.L147:
	.loc 1 548 5 discriminator 5
	movabsq	$curcore, %rdx
	movq	(%rdx), %rcx
	movq	%rax, %rdx
	movq	%rcx, %rsi
	movabsq	$.LC6, %rax
	movq	%rax, %rdi
	movl	$0, %eax
	movabsq	$dbg_print, %rcx
	call	*%rcx
.LVL102:
	movabsq	$__func__.2, %rax
	movq	%rax, %rcx
	movl	$548, %edx
	movabsq	$.LC3, %rax
	movq	%rax, %rsi
	movabsq	$.LC7, %rax
	movq	%rax, %rdi
	movl	$0, %eax
	movabsq	$dbg_print, %r8
	call	*%r8
.LVL103:
	movq	-8(%rbp), %rax
	movq	%rax, %rsi
	movabsq	$.LC31, %rax
	movq	%rax, %rdi
	movl	$0, %eax
	movabsq	$dbg_print, %rdx
	call	*%rdx
.LVL104:
	movabsq	$.LC9, %rax
	movq	%rax, %rsi
	movabsq	$.LC5, %rax
	movq	%rax, %rdi
	movl	$0, %eax
	movabsq	$dbg_print, %rdx
	call	*%rdx
.LVL105:
.L145:
	.loc 1 549 5 is_stmt 1
	movq	-8(%rbp), %rax
	movq	%rax, %rdi
	movabsq	$kthread_exit, %rax
	call	*%rax
.LVL106:
	.loc 1 551 1
	nop
	leave
	.cfi_restore 6
	.cfi_def_cfa 7, 8
	ret
	.cfi_endproc
.LFE26:
	.size	do_exit, .-do_exit
	.section	.rodata
.LC32:
	.string	"NULL != p"
.LC33:
	.string	"NULL != buf"
.LC34:
	.string	"pid:          %i\n"
.LC35:
	.string	"name:         %s\n"
.LC36:
	.string	"parent:       %i (%s)\n"
.LC37:
	.string	"parent:       -\n"
.LC38:
	.string	"children:     -\n"
.LC39:
	.string	"children:\n"
.LC40:
	.string	"     %i (%s)\n"
.LC41:
	.string	"status:       %ld\n"
.LC42:
	.string	"state:        %i\n"
	.text
	.globl	proc_info
	.type	proc_info, @function
proc_info:
.LFB27:
	.loc 1 558 1
	.cfi_startproc
	pushq	%rbp
	.cfi_def_cfa_offset 16
	.cfi_offset 6, -16
	movq	%rsp, %rbp
	.cfi_def_cfa_register 6
	subq	$64, %rsp
	movq	%rdi, -40(%rbp)
	movq	%rsi, -48(%rbp)
	movq	%rdx, -56(%rbp)
	.loc 1 559 19
	movq	-40(%rbp), %rax
	movq	%rax, -24(%rbp)
	.loc 1 560 12
	movq	-56(%rbp), %rax
	movq	%rax, -32(%rbp)
	.loc 1 563 5
	cmpq	$0, -24(%rbp)
	jne	.L149
	.loc 1 563 5 is_stmt 0 discriminator 1
	movabsq	$.LC32, %r8
	movabsq	$.LC2, %rax
	movq	%rax, %rcx
	movabsq	$__func__.1, %rax
	movq	%rax, %rdx
	movl	$563, %esi
	movabsq	$.LC3, %rax
	movq	%rax, %rdi
	movl	$0, %eax
	movabsq	$dbg_panic, %r9
	call	*%r9
.LVL107:
.L149:
	.loc 1 564 5 is_stmt 1
	movq	-48(%rbp), %rax
	testq	%rax, %rax
	jne	.L150
	.loc 1 564 5 is_stmt 0 discriminator 1
	movabsq	$.LC33, %r8
	movabsq	$.LC2, %rax
	movq	%rax, %rcx
	movabsq	$__func__.1, %rax
	movq	%rax, %rdx
	movl	$564, %esi
	movabsq	$.LC3, %rax
	movq	%rax, %rdi
	movl	$0, %eax
	movabsq	$dbg_panic, %r9
	call	*%r9
.LVL108:
.L150:
	.loc 1 566 49 is_stmt 1
	movq	-24(%rbp), %rax
	movl	(%rax), %edx
	.loc 1 566 5
	leaq	-32(%rbp), %rsi
	leaq	-48(%rbp), %rax
	movl	%edx, %ecx
	movabsq	$.LC34, %rdx
	movq	%rax, %rdi
	movl	$0, %eax
	movabsq	$iprintf, %r8
	call	*%r8
.LVL109:
	.loc 1 567 49
	movq	-24(%rbp), %rax
	leaq	4(%rax), %rdx
	.loc 1 567 5
	leaq	-32(%rbp), %rsi
	leaq	-48(%rbp), %rax
	movq	%rdx, %rcx
	movabsq	$.LC35, %rdx
	movq	%rax, %rdi
	movl	$0, %eax
	movabsq	$iprintf, %r8
	call	*%r8
.LVL110:
	.loc 1 568 18
	movq	-24(%rbp), %rax
	movq	296(%rax), %rax
	.loc 1 568 8
	testq	%rax, %rax
	je	.L151
	.loc 1 571 18
	movq	-24(%rbp), %rax
	movq	296(%rax), %rax
	.loc 1 571 27
	leaq	4(%rax), %rcx
	.loc 1 570 58
	movq	-24(%rbp), %rax
	movq	296(%rax), %rax
	.loc 1 570 9
	movl	(%rax), %edx
	leaq	-32(%rbp), %rsi
	leaq	-48(%rbp), %rax
	movq	%rcx, %r8
	movl	%edx, %ecx
	movabsq	$.LC36, %rdx
	movq	%rax, %rdi
	movl	$0, %eax
	movabsq	$iprintf, %r9
	call	*%r9
.LVL111:
	jmp	.L152
.L151:
	.loc 1 575 9
	leaq	-32(%rbp), %rcx
	leaq	-48(%rbp), %rax
	movabsq	$.LC37, %rdx
	movq	%rcx, %rsi
	movq	%rax, %rdi
	movl	$0, %eax
	movabsq	$iprintf, %rcx
	call	*%rcx
.LVL112:
.L152:
	.loc 1 578 9
	movq	-24(%rbp), %rax
	addq	$280, %rax
	movq	%rax, %rdi
	movabsq	$list_empty, %rax
	call	*%rax
.LVL113:
	.loc 1 578 8
	testq	%rax, %rax
	je	.L153
	.loc 1 580 9
	leaq	-32(%rbp), %rcx
	leaq	-48(%rbp), %rax
	movabsq	$.LC38, %rdx
	movq	%rcx, %rsi
	movq	%rax, %rdi
	movl	$0, %eax
	movabsq	$iprintf, %rcx
	call	*%rcx
.LVL114:
	jmp	.L154
.L153:
	.loc 1 584 9
	leaq	-32(%rbp), %rcx
	leaq	-48(%rbp), %rax
	movabsq	$.LC39, %rdx
	movq	%rcx, %rsi
	movq	%rax, %rdi
	movl	$0, %eax
	movabsq	$iprintf, %rcx
	call	*%rcx
.LVL115:
.L154:
.LBB19:
	.loc 1 586 5
	movq	-24(%rbp), %rax
	movq	280(%rax), %rax
	subq	$320, %rax
	movq	%rax, -8(%rbp)
	movq	-8(%rbp), %rax
	movq	320(%rax), %rax
	subq	$320, %rax
	movq	%rax, -16(%rbp)
	jmp	.L155
.L156:
	.loc 1 588 67 discriminator 3
	movq	-8(%rbp), %rax
	leaq	4(%rax), %rcx
	.loc 1 588 9 discriminator 3
	movq	-8(%rbp), %rax
	movl	(%rax), %edx
	leaq	-32(%rbp), %rsi
	leaq	-48(%rbp), %rax
	movq	%rcx, %r8
	movl	%edx, %ecx
	movabsq	$.LC40, %rdx
	movq	%rax, %rdi
	movl	$0, %eax
	movabsq	$iprintf, %r9
	call	*%r9
.LVL116:
	.loc 1 586 5 discriminator 3
	movq	-16(%rbp), %rax
	movq	%rax, -8(%rbp)
	movq	-8(%rbp), %rax
	movq	320(%rax), %rax
	subq	$320, %rax
	movq	%rax, -16(%rbp)
.L155:
	.loc 1 586 5 is_stmt 0 discriminator 1
	movq	-8(%rbp), %rax
	leaq	320(%rax), %rdx
	movq	-24(%rbp), %rax
	addq	$280, %rax
	cmpq	%rax, %rdx
	jne	.L156
.LBE19:
	.loc 1 591 50 is_stmt 1
	movq	-24(%rbp), %rax
	movq	336(%rax), %rdx
	.loc 1 591 5
	leaq	-32(%rbp), %rsi
	leaq	-48(%rbp), %rax
	movq	%rdx, %rcx
	movabsq	$.LC41, %rdx
	movq	%rax, %rdi
	movl	$0, %eax
	movabsq	$iprintf, %r8
	call	*%r8
.LVL117:
	.loc 1 592 49
	movq	-24(%rbp), %rax
	movl	344(%rax), %edx
	.loc 1 592 5
	leaq	-32(%rbp), %rsi
	leaq	-48(%rbp), %rax
	movl	%edx, %ecx
	movabsq	$.LC42, %rdx
	movq	%rax, %rdi
	movl	$0, %eax
	movabsq	$iprintf, %r8
	call	*%r8
.LVL118:
	.loc 1 614 12
	movq	-32(%rbp), %rax
	.loc 1 615 1
	leave
	.cfi_restore 6
	.cfi_def_cfa 7, 8
	ret
	.cfi_endproc
.LFE27:
	.size	proc_info, .-proc_info
	.section	.rodata
.LC43:
	.string	"NULL == arg"
.LC44:
	.string	"PARENT"
.LC45:
	.string	"NAME"
.LC46:
	.string	"PID"
.LC47:
	.string	"%5s %-13s %-s\n"
.LC48:
	.string	"%3i (%s)"
.LC49:
	.string	"  -"
.LC50:
	.string	" %3i  %-13s %-s\n"
	.text
	.globl	proc_list_info
	.type	proc_list_info, @function
proc_list_info:
.LFB28:
	.loc 1 618 1
	.cfi_startproc
	pushq	%rbp
	.cfi_def_cfa_offset 16
	.cfi_offset 6, -16
	movq	%rsp, %rbp
	.cfi_def_cfa_register 6
	addq	$-128, %rsp
	movq	%rdi, -104(%rbp)
	movq	%rsi, -112(%rbp)
	movq	%rdx, -120(%rbp)
	.loc 1 619 12
	movq	-120(%rbp), %rax
	movq	%rax, -24(%rbp)
	.loc 1 621 5
	cmpq	$0, -104(%rbp)
	je	.L159
	.loc 1 621 5 is_stmt 0 discriminator 1
	movabsq	$.LC43, %r8
	movabsq	$.LC2, %rax
	movq	%rax, %rcx
	movabsq	$__func__.0, %rax
	movq	%rax, %rdx
	movl	$621, %esi
	movabsq	$.LC3, %rax
	movq	%rax, %rdi
	movl	$0, %eax
	movabsq	$dbg_panic, %r9
	call	*%r9
.LVL119:
.L159:
	.loc 1 622 5 is_stmt 1
	movq	-112(%rbp), %rax
	testq	%rax, %rax
	jne	.L160
	.loc 1 622 5 is_stmt 0 discriminator 1
	movabsq	$.LC33, %r8
	movabsq	$.LC2, %rax
	movq	%rax, %rcx
	movabsq	$__func__.0, %rax
	movq	%rax, %rdx
	movl	$622, %esi
	movabsq	$.LC3, %rax
	movq	%rax, %rdi
	movl	$0, %eax
	movabsq	$dbg_panic, %r9
	call	*%r9
.LVL120:
.L160:
	.loc 1 628 5 is_stmt 1
	leaq	-24(%rbp), %rsi
	leaq	-112(%rbp), %rax
	movabsq	$.LC44, %r9
	movabsq	$.LC45, %r8
	movabsq	$.LC46, %rdx
	movq	%rdx, %rcx
	movabsq	$.LC47, %rdx
	movq	%rax, %rdi
	movl	$0, %eax
	movabsq	$iprintf, %r10
	call	*%r10
.LVL121:
.LBB20:
	.loc 1 631 5
	movabsq	$proc_list, %rax
	movq	(%rax), %rax
	subq	$304, %rax
	movq	%rax, -8(%rbp)
	movq	-8(%rbp), %rax
	movq	304(%rax), %rax
	subq	$304, %rax
	movq	%rax, -16(%rbp)
	jmp	.L161
.L164:
.LBB21:
	.loc 1 634 22
	movq	-8(%rbp), %rax
	movq	296(%rax), %rax
	.loc 1 634 12
	testq	%rax, %rax
	je	.L162
	.loc 1 637 23
	movq	-8(%rbp), %rax
	movq	296(%rax), %rax
	.loc 1 637 32
	leaq	4(%rax), %rcx
	.loc 1 636 59
	movq	-8(%rbp), %rax
	movq	296(%rax), %rax
	.loc 1 636 13
	movl	(%rax), %edx
	leaq	-96(%rbp), %rax
	movq	%rcx, %r8
	movl	%edx, %ecx
	movabsq	$.LC48, %rdx
	movl	$64, %esi
	movq	%rax, %rdi
	movl	$0, %eax
	movabsq	$snprintf, %r9
	call	*%r9
.LVL122:
	jmp	.L163
.L162:
	.loc 1 641 13
	leaq	-96(%rbp), %rax
	movabsq	$.LC49, %rdx
	movl	$64, %esi
	movq	%rax, %rdi
	movl	$0, %eax
	movabsq	$snprintf, %rcx
	call	*%rcx
.LVL123:
.L163:
	.loc 1 658 62 discriminator 2
	movq	-8(%rbp), %rax
	leaq	4(%rax), %rdi
	.loc 1 658 9 discriminator 2
	movq	-8(%rbp), %rax
	movl	(%rax), %edx
	leaq	-96(%rbp), %rcx
	leaq	-24(%rbp), %rsi
	leaq	-112(%rbp), %rax
	movq	%rcx, %r9
	movq	%rdi, %r8
	movl	%edx, %ecx
	movabsq	$.LC50, %rdx
	movq	%rax, %rdi
	movl	$0, %eax
	movabsq	$iprintf, %r10
	call	*%r10
.LVL124:
.LBE21:
	.loc 1 631 5 discriminator 2
	movq	-16(%rbp), %rax
	movq	%rax, -8(%rbp)
	movq	-8(%rbp), %rax
	movq	304(%rax), %rax
	subq	$304, %rax
	movq	%rax, -16(%rbp)
.L161:
	.loc 1 631 5 is_stmt 0 discriminator 1
	movq	-8(%rbp), %rax
	leaq	304(%rax), %rdx
	movabsq	$proc_list, %rax
	cmpq	%rax, %rdx
	jne	.L164
.LBE20:
	.loc 1 661 12 is_stmt 1
	movq	-24(%rbp), %rax
	.loc 1 662 1
	leave
	.cfi_restore 6
	.cfi_def_cfa 7, 8
	ret
	.cfi_endproc
.LFE28:
	.size	proc_list_info, .-proc_list_info
	.section	.rodata
	.align 8
	.type	__func__.11, @object
	.size	__func__.11, 10
__func__.11:
	.string	"proc_init"
	.align 16
	.type	__func__.10, @object
	.size	__func__.10, 19
__func__.10:
	.string	"proc_idleproc_init"
	.align 8
	.type	__func__.9, @object
	.size	__func__.9, 12
__func__.9:
	.string	"_proc_getid"
	.align 8
	.type	__func__.8, @object
	.size	__func__.8, 12
__func__.8:
	.string	"proc_create"
	.align 8
	.type	__func__.7, @object
	.size	__func__.7, 13
__func__.7:
	.string	"proc_cleanup"
	.align 16
	.type	__func__.6, @object
	.size	__func__.6, 20
__func__.6:
	.string	"proc_thread_exiting"
	.align 8
	.type	__func__.5, @object
	.size	__func__.5, 10
__func__.5:
	.string	"proc_kill"
	.align 8
	.type	__func__.4, @object
	.size	__func__.4, 13
__func__.4:
	.string	"proc_destroy"
	.align 8
	.type	__func__.3, @object
	.size	__func__.3, 11
__func__.3:
	.string	"do_waitpid"
	.align 8
	.type	__func__.2, @object
	.size	__func__.2, 8
__func__.2:
	.string	"do_exit"
	.align 8
	.type	__func__.1, @object
	.size	__func__.1, 10
__func__.1:
	.string	"proc_info"
	.align 8
	.type	__func__.0, @object
	.size	__func__.0, 15
__func__.0:
	.string	"proc_list_info"
	.text
.Letext0:
	.file 5 "include/types.h"
	.file 6 "include/fs/file.h"
	.file 7 "include/fs/vnode.h"
	.file 8 "include/util/list.h"
	.file 9 "include/proc/sched.h"
	.file 10 "include/proc/kmutex.h"
	.file 11 "include/proc/kthread.h"
	.file 12 "include/fs/vfs.h"
	.file 13 "include/util/btree.h"
	.file 14 "include/mm/pframe.h"
	.file 15 "include/mm/mobj.h"
	.file 16 "include/drivers/blockdev.h"
	.file 17 "include/drivers/chardev.h"
	.file 18 "include/fs/dirent.h"
	.file 19 "include/fs/stat.h"
	.file 20 "include/vm/vmmap.h"
	.file 21 "include/proc/proc.h"
	.file 22 "include/mm/pagetable.h"
	.file 23 "include/proc/context.h"
	.file 24 "include/proc/core.h"
	.file 25 "include/globals.h"
	.file 26 "include/mm/slab.h"
	.file 27 "include/util/printf.h"
	.file 28 "include/fs/vfs_syscall.h"
	.file 29 "include/util/string.h"
	.section	.note.GNU-stack,"",@progbits
