	.file	"sched.c"
	.text
.Ltext0:
	.file 1 "proc/sched.c"
	.type	equals, @function
equals:
.LFB0:
	.file 2 "include/util/debug.h"
	.loc 2 280 1
	.cfi_startproc
	pushq	%rbp
	.cfi_def_cfa_offset 16
	.cfi_offset 6, -16
	movq	%rsp, %rbp
	.cfi_def_cfa_register 6
	subq	$16, %rsp
	movq	%rdi, -8(%rbp)
	movq	%rsi, -16(%rbp)
	.loc 2 281 14
	movq	-8(%rbp), %rax
	cmpq	-16(%rbp), %rax
	sete	%al
	movzbl	%al, %eax
	.loc 2 282 1
	leave
	.cfi_restore 6
	.cfi_def_cfa 7, 8
	ret
	.cfi_endproc
.LFE0:
	.size	equals, .-equals
	.type	notequals, @function
notequals:
.LFB1:
	.loc 2 284 39
	.cfi_startproc
	pushq	%rbp
	.cfi_def_cfa_offset 16
	.cfi_offset 6, -16
	movq	%rsp, %rbp
	.cfi_def_cfa_register 6
	subq	$16, %rsp
	movq	%rdi, -8(%rbp)
	movq	%rsi, -16(%rbp)
	.loc 2 284 50
	movq	-8(%rbp), %rax
	cmpq	-16(%rbp), %rax
	setne	%al
	movzbl	%al, %eax
	.loc 2 284 56
	leave
	.cfi_restore 6
	.cfi_def_cfa 7, 8
	ret
	.cfi_endproc
.LFE1:
	.size	notequals, .-notequals
	.type	lessthan, @function
lessthan:
.LFB2:
	.loc 2 286 38
	.cfi_startproc
	pushq	%rbp
	.cfi_def_cfa_offset 16
	.cfi_offset 6, -16
	movq	%rsp, %rbp
	.cfi_def_cfa_register 6
	subq	$16, %rsp
	movq	%rdi, -8(%rbp)
	movq	%rsi, -16(%rbp)
	.loc 2 286 49
	movq	-8(%rbp), %rax
	cmpq	-16(%rbp), %rax
	setl	%al
	movzbl	%al, %eax
	.loc 2 286 54
	leave
	.cfi_restore 6
	.cfi_def_cfa 7, 8
	ret
	.cfi_endproc
.LFE2:
	.size	lessthan, .-lessthan
	.type	greaterthan, @function
greaterthan:
.LFB3:
	.loc 2 288 41
	.cfi_startproc
	pushq	%rbp
	.cfi_def_cfa_offset 16
	.cfi_offset 6, -16
	movq	%rsp, %rbp
	.cfi_def_cfa_register 6
	subq	$16, %rsp
	movq	%rdi, -8(%rbp)
	movq	%rsi, -16(%rbp)
	.loc 2 288 52
	movq	-8(%rbp), %rax
	cmpq	-16(%rbp), %rax
	setg	%al
	movzbl	%al, %eax
	.loc 2 288 57
	leave
	.cfi_restore 6
	.cfi_def_cfa 7, 8
	ret
	.cfi_endproc
.LFE3:
	.size	greaterthan, .-greaterthan
	.type	lessthaneq, @function
lessthaneq:
.LFB4:
	.loc 2 290 40
	.cfi_startproc
	pushq	%rbp
	.cfi_def_cfa_offset 16
	.cfi_offset 6, -16
	movq	%rsp, %rbp
	.cfi_def_cfa_register 6
	subq	$16, %rsp
	movq	%rdi, -8(%rbp)
	movq	%rsi, -16(%rbp)
	.loc 2 290 51
	movq	-8(%rbp), %rax
	cmpq	-16(%rbp), %rax
	setle	%al
	movzbl	%al, %eax
	.loc 2 290 57
	leave
	.cfi_restore 6
	.cfi_def_cfa 7, 8
	ret
	.cfi_endproc
.LFE4:
	.size	lessthaneq, .-lessthaneq
	.type	greaterthaneq, @function
greaterthaneq:
.LFB5:
	.loc 2 292 43
	.cfi_startproc
	pushq	%rbp
	.cfi_def_cfa_offset 16
	.cfi_offset 6, -16
	movq	%rsp, %rbp
	.cfi_def_cfa_register 6
	subq	$16, %rsp
	movq	%rdi, -8(%rbp)
	movq	%rsi, -16(%rbp)
	.loc 2 292 54
	movq	-8(%rbp), %rax
	cmpq	-16(%rbp), %rax
	setge	%al
	movzbl	%al, %eax
	.loc 2 292 60
	leave
	.cfi_restore 6
	.cfi_def_cfa 7, 8
	ret
	.cfi_endproc
.LFE5:
	.size	greaterthaneq, .-greaterthaneq
	.type	intr_enabled, @function
intr_enabled:
.LFB6:
	.file 3 "include/main/interrupt.h"
	.loc 3 82 1
	.cfi_startproc
	pushq	%rbp
	.cfi_def_cfa_offset 16
	.cfi_offset 6, -16
	movq	%rsp, %rbp
	.cfi_def_cfa_register 6
	subq	$16, %rsp
	.loc 3 84 5
#APP
# 84 "include/main/interrupt.h" 1
	pushf; pop %rax; and $0x200, %rax;
# 0 "" 2
#NO_APP
	movq	%rax, -8(%rbp)
	.loc 3 86 12
	movq	-8(%rbp), %rax
	.loc 3 87 1
	leave
	.cfi_restore 6
	.cfi_def_cfa 7, 8
	ret
	.cfi_endproc
.LFE6:
	.size	intr_enabled, .-intr_enabled
	.type	intr_enable, @function
intr_enable:
.LFB7:
	.loc 3 89 34
	.cfi_startproc
	pushq	%rbp
	.cfi_def_cfa_offset 16
	.cfi_offset 6, -16
	movq	%rsp, %rbp
	.cfi_def_cfa_register 6
	.loc 3 89 36
#APP
# 89 "include/main/interrupt.h" 1
	sti
# 0 "" 2
	.loc 3 89 61
#NO_APP
	nop
	popq	%rbp
	.cfi_restore 6
	.cfi_def_cfa 7, 8
	ret
	.cfi_endproc
.LFE7:
	.size	intr_enable, .-intr_enable
	.type	intr_disable, @function
intr_disable:
.LFB8:
	.loc 3 91 35
	.cfi_startproc
	pushq	%rbp
	.cfi_def_cfa_offset 16
	.cfi_offset 6, -16
	movq	%rsp, %rbp
	.cfi_def_cfa_register 6
	.loc 3 91 37
#APP
# 91 "include/main/interrupt.h" 1
	cli
# 0 "" 2
	.loc 3 91 62
#NO_APP
	nop
	popq	%rbp
	.cfi_restore 6
	.cfi_def_cfa 7, 8
	ret
	.cfi_endproc
.LFE8:
	.size	intr_disable, .-intr_disable
	.type	intr_wait, @function
intr_wait:
.LFB9:
	.loc 3 98 1
	.cfi_startproc
	pushq	%rbp
	.cfi_def_cfa_offset 16
	.cfi_offset 6, -16
	movq	%rsp, %rbp
	.cfi_def_cfa_register 6
	.loc 3 105 5
#APP
# 105 "include/main/interrupt.h" 1
	sti; hlt
# 0 "" 2
	.loc 3 106 1
#NO_APP
	nop
	popq	%rbp
	.cfi_restore 6
	.cfi_def_cfa 7, 8
	ret
	.cfi_endproc
.LFE9:
	.size	intr_wait, .-intr_wait
	.section	.csd,"aw"
	.align 16
	.type	kt_runq, @object
	.size	kt_runq, 24
kt_runq:
	.zero	24
	.align 8
	.type	last_thread_context, @object
	.size	last_thread_context, 8
last_thread_context:
	.zero	8
	.text
	.globl	preemption_disable
	.type	preemption_disable, @function
preemption_disable:
.LFB10:
	.loc 1 30 1
	.cfi_startproc
	pushq	%rbp
	.cfi_def_cfa_offset 16
	.cfi_offset 6, -16
	movq	%rsp, %rbp
	.cfi_def_cfa_register 6
	.loc 1 31 9
	movabsq	$curthr, %rax
	movq	(%rax), %rax
	.loc 1 31 8
	testq	%rax, %rax
	je	.L20
	.loc 1 32 15
	movabsq	$curthr, %rax
	movq	(%rax), %rax
	movq	152(%rax), %rdx
	.loc 1 32 36
	addq	$1, %rdx
	movq	%rdx, 152(%rax)
.L20:
	.loc 1 33 1
	nop
	popq	%rbp
	.cfi_restore 6
	.cfi_def_cfa 7, 8
	ret
	.cfi_endproc
.LFE10:
	.size	preemption_disable, .-preemption_disable
	.section	.rodata
.LC0:
	.string	"curthr->kt_preemption_count"
.LC1:
	.string	"assertion failed: %s"
.LC2:
	.string	"proc/sched.c"
	.text
	.globl	preemption_enable
	.type	preemption_enable, @function
preemption_enable:
.LFB11:
	.loc 1 36 1
	.cfi_startproc
	pushq	%rbp
	.cfi_def_cfa_offset 16
	.cfi_offset 6, -16
	movq	%rsp, %rbp
	.cfi_def_cfa_register 6
	.loc 1 37 9
	movabsq	$curthr, %rax
	movq	(%rax), %rax
	.loc 1 37 8
	testq	%rax, %rax
	je	.L24
	.loc 1 39 9
	movabsq	$curthr, %rax
	movq	(%rax), %rax
	movq	152(%rax), %rax
	testq	%rax, %rax
	jne	.L23
	.loc 1 39 9 is_stmt 0 discriminator 1
	movabsq	$.LC0, %r8
	movabsq	$.LC1, %rax
	movq	%rax, %rcx
	movabsq	$__func__.9, %rax
	movq	%rax, %rdx
	movl	$39, %esi
	movabsq	$.LC2, %rax
	movq	%rax, %rdi
	movl	$0, %eax
	movabsq	$dbg_panic, %r9
	call	*%r9
.LVL0:
.L23:
	.loc 1 40 15 is_stmt 1
	movabsq	$curthr, %rax
	movq	(%rax), %rax
	movq	152(%rax), %rdx
	.loc 1 40 36
	subq	$1, %rdx
	movq	%rdx, 152(%rax)
.L24:
	.loc 1 42 1
	nop
	popq	%rbp
	.cfi_restore 6
	.cfi_def_cfa 7, 8
	ret
	.cfi_endproc
.LFE11:
	.size	preemption_enable, .-preemption_enable
	.section	.rodata
.LC3:
	.string	"curthr"
	.text
	.globl	preemption_reset
	.type	preemption_reset, @function
preemption_reset:
.LFB12:
	.loc 1 45 1
	.cfi_startproc
	pushq	%rbp
	.cfi_def_cfa_offset 16
	.cfi_offset 6, -16
	movq	%rsp, %rbp
	.cfi_def_cfa_register 6
	.loc 1 46 5
	movabsq	$curthr, %rax
	movq	(%rax), %rax
	testq	%rax, %rax
	jne	.L26
	.loc 1 46 5 is_stmt 0 discriminator 1
	movabsq	$.LC3, %r8
	movabsq	$.LC1, %rax
	movq	%rax, %rcx
	movabsq	$__func__.8, %rax
	movq	%rax, %rdx
	movl	$46, %esi
	movabsq	$.LC2, %rax
	movq	%rax, %rdi
	movl	$0, %eax
	movabsq	$dbg_panic, %r9
	call	*%r9
.LVL1:
.L26:
	.loc 1 47 11 is_stmt 1
	movabsq	$curthr, %rax
	movq	(%rax), %rax
	.loc 1 47 33
	movq	$0, 152(%rax)
	.loc 1 48 1
	nop
	popq	%rbp
	.cfi_restore 6
	.cfi_def_cfa 7, 8
	ret
	.cfi_endproc
.LFE12:
	.size	preemption_reset, .-preemption_reset
	.globl	preemption_enabled
	.type	preemption_enabled, @function
preemption_enabled:
.LFB13:
	.loc 1 51 1
	.cfi_startproc
	pushq	%rbp
	.cfi_def_cfa_offset 16
	.cfi_offset 6, -16
	movq	%rsp, %rbp
	.cfi_def_cfa_register 6
	.loc 1 52 12
	movabsq	$curthr, %rax
	movq	(%rax), %rax
	.loc 1 52 19
	testq	%rax, %rax
	je	.L28
	.loc 1 52 29 discriminator 1
	movabsq	$curthr, %rax
	movq	(%rax), %rax
	movq	152(%rax), %rax
	.loc 1 52 19 discriminator 1
	testq	%rax, %rax
	jne	.L28
	.loc 1 52 19 is_stmt 0 discriminator 3
	movl	$1, %eax
	jmp	.L29
.L28:
	.loc 1 52 19 discriminator 4
	movl	$0, %eax
.L29:
	.loc 1 52 19 discriminator 6
	cltq
	.loc 1 53 1 is_stmt 1 discriminator 6
	popq	%rbp
	.cfi_restore 6
	.cfi_def_cfa 7, 8
	ret
	.cfi_endproc
.LFE13:
	.size	preemption_enabled, .-preemption_enabled
	.globl	sched_queue_init
	.type	sched_queue_init, @function
sched_queue_init:
.LFB14:
	.loc 1 63 1
	.cfi_startproc
	pushq	%rbp
	.cfi_def_cfa_offset 16
	.cfi_offset 6, -16
	movq	%rsp, %rbp
	.cfi_def_cfa_register 6
	subq	$16, %rsp
	movq	%rdi, -8(%rbp)
	.loc 1 64 5
	movq	-8(%rbp), %rax
	movq	%rax, %rdi
	movabsq	$list_init, %rax
	call	*%rax
.LVL2:
	.loc 1 65 20
	movq	-8(%rbp), %rax
	movq	$0, 16(%rax)
	.loc 1 66 1
	nop
	leave
	.cfi_restore 6
	.cfi_def_cfa 7, 8
	ret
	.cfi_endproc
.LFE14:
	.size	sched_queue_init, .-sched_queue_init
	.section	.rodata
.LC4:
	.string	"!thr->kt_wchan"
	.text
	.type	ktqueue_enqueue, @function
ktqueue_enqueue:
.LFB15:
	.loc 1 74 1
	.cfi_startproc
	pushq	%rbp
	.cfi_def_cfa_offset 16
	.cfi_offset 6, -16
	movq	%rsp, %rbp
	.cfi_def_cfa_register 6
	subq	$16, %rsp
	movq	%rdi, -8(%rbp)
	movq	%rsi, -16(%rbp)
	.loc 1 75 5
	movq	-16(%rbp), %rax
	movq	88(%rax), %rax
	testq	%rax, %rax
	je	.L33
	.loc 1 75 5 is_stmt 0 discriminator 1
	movabsq	$.LC4, %r8
	movabsq	$.LC1, %rax
	movq	%rax, %rcx
	movabsq	$__func__.7, %rax
	movq	%rax, %rdx
	movl	$75, %esi
	movabsq	$.LC2, %rax
	movq	%rax, %rdi
	movl	$0, %eax
	movabsq	$dbg_panic, %r9
	call	*%r9
.LVL3:
.L33:
	.loc 1 77 24 is_stmt 1
	movq	-8(%rbp), %rax
	.loc 1 77 5
	movq	%rax, %rdi
	movabsq	$list_assert_sanity, %rax
	call	*%rax
.LVL4:
	.loc 1 80 5
	movq	-16(%rbp), %rax
	leaq	120(%rax), %rdx
	movq	-8(%rbp), %rax
	movq	%rdx, %rsi
	movq	%rax, %rdi
	movabsq	$list_insert_head, %rax
	call	*%rax
.LVL5:
	.loc 1 81 24
	movq	-8(%rbp), %rax
	.loc 1 81 5
	movq	%rax, %rdi
	movabsq	$list_assert_sanity, %rax
	call	*%rax
.LVL6:
	.loc 1 83 19
	movq	-16(%rbp), %rax
	movq	-8(%rbp), %rdx
	movq	%rdx, 88(%rax)
	.loc 1 84 10
	movq	-8(%rbp), %rax
	movq	16(%rax), %rax
	.loc 1 84 19
	leaq	1(%rax), %rdx
	movq	-8(%rbp), %rax
	movq	%rdx, 16(%rax)
	.loc 1 85 1
	nop
	leave
	.cfi_restore 6
	.cfi_def_cfa 7, 8
	ret
	.cfi_endproc
.LFE15:
	.size	ktqueue_enqueue, .-ktqueue_enqueue
	.type	ktqueue_dequeue, @function
ktqueue_dequeue:
.LFB16:
	.loc 1 93 1
	.cfi_startproc
	pushq	%rbp
	.cfi_def_cfa_offset 16
	.cfi_offset 6, -16
	movq	%rsp, %rbp
	.cfi_def_cfa_register 6
	subq	$48, %rsp
	movq	%rdi, -40(%rbp)
	movq	-40(%rbp), %rax
	movq	%rax, -24(%rbp)
.LBB19:
.LBB20:
	.loc 1 133 63
	movq	-24(%rbp), %rax
	movq	16(%rax), %rax
	.loc 1 133 73
	testq	%rax, %rax
	sete	%al
	movzbl	%al, %eax
.LBE20:
.LBE19:
	.loc 1 94 8
	testq	%rax, %rax
	je	.L36
	.loc 1 96 16
	movl	$0, %eax
	jmp	.L37
.L36:
	.loc 1 99 24
	movq	-40(%rbp), %rax
	.loc 1 99 5
	movq	%rax, %rdi
	movabsq	$list_assert_sanity, %rax
	call	*%rax
.LVL7:
	.loc 1 101 18
	movq	-40(%rbp), %rax
	movq	8(%rax), %rax
	movq	%rax, -8(%rbp)
	.loc 1 102 16
	movq	-8(%rbp), %rax
	subq	$120, %rax
	movq	%rax, -16(%rbp)
	.loc 1 103 5
	movq	-8(%rbp), %rax
	movq	%rax, %rdi
	movabsq	$list_remove, %rax
	call	*%rax
.LVL8:
	.loc 1 104 19
	movq	-16(%rbp), %rax
	movq	$0, 88(%rax)
	.loc 1 106 24
	movq	-40(%rbp), %rax
	.loc 1 106 5
	movq	%rax, %rdi
	movabsq	$list_assert_sanity, %rax
	call	*%rax
.LVL9:
	.loc 1 108 10
	movq	-40(%rbp), %rax
	movq	16(%rax), %rax
	.loc 1 108 19
	leaq	-1(%rax), %rdx
	movq	-40(%rbp), %rax
	movq	%rdx, 16(%rax)
	.loc 1 109 12
	movq	-16(%rbp), %rax
.L37:
	.loc 1 110 1
	leave
	.cfi_restore 6
	.cfi_def_cfa 7, 8
	ret
	.cfi_endproc
.LFE16:
	.size	ktqueue_dequeue, .-ktqueue_dequeue
	.section	.rodata
	.align 8
.LC5:
	.string	"thr->kt_qlink.l_next && thr->kt_qlink.l_prev"
	.text
	.type	ktqueue_remove, @function
ktqueue_remove:
.LFB17:
	.loc 1 118 1
	.cfi_startproc
	pushq	%rbp
	.cfi_def_cfa_offset 16
	.cfi_offset 6, -16
	movq	%rsp, %rbp
	.cfi_def_cfa_register 6
	subq	$16, %rsp
	movq	%rdi, -8(%rbp)
	movq	%rsi, -16(%rbp)
	.loc 1 119 5
	movq	-16(%rbp), %rax
	movq	120(%rax), %rax
	testq	%rax, %rax
	je	.L39
	.loc 1 119 5 is_stmt 0 discriminator 2
	movq	-16(%rbp), %rax
	movq	128(%rax), %rax
	testq	%rax, %rax
	jne	.L40
.L39:
	.loc 1 119 5 discriminator 3
	movabsq	$.LC5, %r8
	movabsq	$.LC1, %rax
	movq	%rax, %rcx
	movabsq	$__func__.6, %rax
	movq	%rax, %rdx
	movl	$119, %esi
	movabsq	$.LC2, %rax
	movq	%rax, %rdi
	movl	$0, %eax
	movabsq	$dbg_panic, %r9
	call	*%r9
.LVL10:
.L40:
	.loc 1 120 5 is_stmt 1
	movq	-16(%rbp), %rax
	addq	$120, %rax
	movq	%rax, %rdi
	movabsq	$list_remove, %rax
	call	*%rax
.LVL11:
	.loc 1 121 19
	movq	-16(%rbp), %rax
	movq	$0, 88(%rax)
	.loc 1 122 10
	movq	-8(%rbp), %rax
	movq	16(%rax), %rax
	.loc 1 122 19
	leaq	-1(%rax), %rdx
	movq	-8(%rbp), %rax
	movq	%rdx, 16(%rax)
	.loc 1 123 24
	movq	-8(%rbp), %rax
	.loc 1 123 5
	movq	%rax, %rdi
	movabsq	$list_assert_sanity, %rax
	call	*%rax
.LVL12:
	.loc 1 124 1
	nop
	leave
	.cfi_restore 6
	.cfi_def_cfa 7, 8
	ret
	.cfi_endproc
.LFE17:
	.size	ktqueue_remove, .-ktqueue_remove
	.globl	sched_queue_empty
	.type	sched_queue_empty, @function
sched_queue_empty:
.LFB18:
	.loc 1 133 49
	.cfi_startproc
	pushq	%rbp
	.cfi_def_cfa_offset 16
	.cfi_offset 6, -16
	movq	%rsp, %rbp
	.cfi_def_cfa_register 6
	subq	$8, %rsp
	movq	%rdi, -8(%rbp)
	.loc 1 133 63
	movq	-8(%rbp), %rax
	movq	16(%rax), %rax
	.loc 1 133 73
	testq	%rax, %rax
	sete	%al
	movzbl	%al, %eax
	.loc 1 133 79
	leave
	.cfi_restore 6
	.cfi_def_cfa 7, 8
	ret
	.cfi_endproc
.LFE18:
	.size	sched_queue_empty, .-sched_queue_empty
	.globl	sched_init
	.type	sched_init, @function
sched_init:
.LFB19:
	.loc 1 143 1
	.cfi_startproc
	pushq	%rbp
	.cfi_def_cfa_offset 16
	.cfi_offset 6, -16
	movq	%rsp, %rbp
	.cfi_def_cfa_register 6
	.loc 1 144 22
	movabsq	$curcore, %rax
	movq	(%rax), %rax
	movabsq	$csd_vaddr_table, %rdx
	movq	(%rdx,%rax,8), %rax
	movabsq	$kt_runq, %rdx
	andl	$4095, %edx
	addq	%rdx, %rax
	.loc 1 144 5
	movq	%rax, %rdi
	movabsq	$sched_queue_init, %rax
	call	*%rax
.LVL13:
	.loc 1 145 1
	nop
	popq	%rbp
	.cfi_restore 6
	.cfi_def_cfa 7, 8
	ret
	.cfi_endproc
.LFE19:
	.size	sched_init, .-sched_init
	.globl	sched_cancellable_sleep_on
	.type	sched_cancellable_sleep_on, @function
sched_cancellable_sleep_on:
.LFB20:
	.loc 1 161 1
	.cfi_startproc
	pushq	%rbp
	.cfi_def_cfa_offset 16
	.cfi_offset 6, -16
	movq	%rsp, %rbp
	.cfi_def_cfa_register 6
	subq	$16, %rsp
	movq	%rdi, -8(%rbp)
	.loc 1 163 15
	movabsq	$curthr, %rax
	movq	(%rax), %rax
	movq	80(%rax), %rax
	.loc 1 163 8
	testq	%rax, %rax
	je	.L45
	.loc 1 165 16
	movq	$-4, %rax
	jmp	.L46
.L45:
	.loc 1 168 11
	movabsq	$curthr, %rax
	movq	(%rax), %rax
	.loc 1 168 22
	movl	$4, 96(%rax)
	.loc 1 169 5
	movq	-8(%rbp), %rax
	movq	%rax, %rdi
	movabsq	$sched_switch, %rax
	call	*%rax
.LVL14:
	.loc 1 171 18
	movabsq	$curthr, %rax
	movq	(%rax), %rax
	movq	80(%rax), %rax
	.loc 1 171 42
	testq	%rax, %rax
	je	.L47
	.loc 1 171 42 is_stmt 0 discriminator 1
	movq	$-4, %rax
	jmp	.L46
.L47:
	.loc 1 171 42 discriminator 2
	movl	$0, %eax
.L46:
	.loc 1 174 1 is_stmt 1
	leave
	.cfi_restore 6
	.cfi_def_cfa 7, 8
	ret
	.cfi_endproc
.LFE20:
	.size	sched_cancellable_sleep_on, .-sched_cancellable_sleep_on
	.section	.rodata
.LC6:
	.string	"thr->kt_wchan"
	.text
	.globl	sched_cancel
	.type	sched_cancel, @function
sched_cancel:
.LFB21:
	.loc 1 183 1
	.cfi_startproc
	pushq	%rbp
	.cfi_def_cfa_offset 16
	.cfi_offset 6, -16
	movq	%rsp, %rbp
	.cfi_def_cfa_register 6
	subq	$16, %rsp
	movq	%rdi, -8(%rbp)
	.loc 1 185 12
	movq	-8(%rbp), %rax
	movl	96(%rax), %eax
	.loc 1 185 8
	cmpl	$4, %eax
	jne	.L50
	.loc 1 187 9
	movq	-8(%rbp), %rax
	movq	88(%rax), %rax
	testq	%rax, %rax
	jne	.L51
	.loc 1 187 9 is_stmt 0 discriminator 1
	movabsq	$.LC6, %r8
	movabsq	$.LC1, %rax
	movq	%rax, %rcx
	movabsq	$__func__.5, %rax
	movq	%rax, %rdx
	movl	$187, %esi
	movabsq	$.LC2, %rax
	movq	%rax, %rdi
	movl	$0, %eax
	movabsq	$dbg_panic, %r9
	call	*%r9
.LVL15:
.L51:
	.loc 1 188 27 is_stmt 1
	movq	-8(%rbp), %rax
	movq	$1, 80(%rax)
	.loc 1 189 9
	movq	-8(%rbp), %rax
	movq	88(%rax), %rax
	movq	-8(%rbp), %rdx
	movq	%rdx, %rsi
	movq	%rax, %rdi
	movabsq	$ktqueue_remove, %rax
	call	*%rax
.LVL16:
	.loc 1 190 9
	movq	-8(%rbp), %rax
	movq	%rax, %rdi
	movabsq	$sched_make_runnable, %rax
	call	*%rax
.LVL17:
	.loc 1 197 1
	jmp	.L53
.L50:
	.loc 1 194 27
	movq	-8(%rbp), %rax
	movq	$1, 80(%rax)
.L53:
	.loc 1 197 1
	nop
	leave
	.cfi_restore 6
	.cfi_def_cfa 7, 8
	ret
	.cfi_endproc
.LFE21:
	.size	sched_cancel, .-sched_cancel
	.section	.rodata
.LC7:
	.string	"curthr->kt_state != KT_ON_CPU"
	.text
	.globl	sched_switch
	.type	sched_switch, @function
sched_switch:
.LFB22:
	.loc 1 234 1
	.cfi_startproc
	pushq	%rbp
	.cfi_def_cfa_offset 16
	.cfi_offset 6, -16
	movq	%rsp, %rbp
	.cfi_def_cfa_register 6
	subq	$32, %rsp
	movq	%rdi, -24(%rbp)
	.loc 1 236 5
	movabsq	$curthr, %rax
	movq	(%rax), %rax
	movl	96(%rax), %eax
	cmpl	$1, %eax
	jne	.L55
	.loc 1 236 5 is_stmt 0 discriminator 1
	movabsq	$.LC7, %r8
	movabsq	$.LC1, %rax
	movq	%rax, %rcx
	movabsq	$__func__.4, %rax
	movq	%rax, %rdx
	movl	$236, %esi
	movabsq	$.LC2, %rax
	movq	%rax, %rdi
	movl	$0, %eax
	movabsq	$dbg_panic, %r9
	call	*%r9
.LVL18:
.L55:
.LBB21:
.LBB22:
	.loc 1 31 9 is_stmt 1
	movabsq	$curthr, %rax
	movq	(%rax), %rax
	.loc 1 31 8
	testq	%rax, %rax
	je	.L62
	.loc 1 32 15
	movabsq	$curthr, %rax
	movq	(%rax), %rax
	movq	152(%rax), %rdx
	.loc 1 32 36
	addq	$1, %rdx
	movq	%rdx, 152(%rax)
.L62:
	.loc 1 33 1
	nop
.LBE22:
.LBE21:
.LBB23:
.LBB24:
	.loc 3 91 37
#APP
# 91 "include/main/interrupt.h" 1
	cli
# 0 "" 2
	.loc 3 91 62
#NO_APP
	nop
.LBE24:
.LBE23:
	.loc 1 240 28
	movl	$0, %edi
	movabsq	$intr_setipl, %rax
	call	*%rax
.LVL19:
	.loc 1 240 22
	movb	%al, -1(%rbp)
	.loc 1 242 22
	movabsq	$curcore, %rdx
	movq	-24(%rbp), %rax
	movq	%rax, 56(%rdx)
	.loc 1 244 34
	movabsq	$curthr, %rax
	movq	(%rax), %rax
	.loc 1 244 27
	movq	%rax, %rdx
	.loc 1 244 25
	movabsq	$last_thread_context, %rax
	movq	%rdx, (%rax)
	.loc 1 245 27
	movabsq	$curthr, %rax
	movq	(%rax), %rax
	.loc 1 245 5
	movq	%rax, %rdx
	movabsq	$curcore+8, %rax
	movq	%rax, %rsi
	movq	%rdx, %rdi
	movabsq	$context_switch, %rax
	call	*%rax
.LVL20:
	.loc 1 246 5
	movabsq	$curthr, %rax
	movq	(%rax), %rax
	testq	%rax, %rax
	jne	.L57
	.loc 1 246 5 is_stmt 0 discriminator 1
	movabsq	$.LC3, %r8
	movabsq	$.LC1, %rax
	movq	%rax, %rcx
	movabsq	$__func__.4, %rax
	movq	%rax, %rdx
	movl	$246, %esi
	movabsq	$.LC2, %rax
	movq	%rax, %rdi
	movl	$0, %eax
	movabsq	$dbg_panic, %r9
	call	*%r9
.LVL21:
.L57:
	.loc 1 248 5 is_stmt 1
	movzbl	-1(%rbp), %eax
	movzbl	%al, %eax
	movl	%eax, %edi
	movabsq	$intr_setipl, %rax
	call	*%rax
.LVL22:
.LBB25:
.LBB26:
	.loc 3 89 36
#APP
# 89 "include/main/interrupt.h" 1
	sti
# 0 "" 2
	.loc 3 89 61
#NO_APP
	nop
.LBE26:
.LBE25:
.LBB27:
.LBB28:
	.loc 1 37 9
	movabsq	$curthr, %rax
	movq	(%rax), %rax
	.loc 1 37 8
	testq	%rax, %rax
	je	.L63
	.loc 1 39 9
	movabsq	$curthr, %rax
	movq	(%rax), %rax
	movq	152(%rax), %rax
	testq	%rax, %rax
	jne	.L59
	movabsq	$.LC0, %r8
	movabsq	$.LC1, %rax
	movq	%rax, %rcx
	movabsq	$__func__.9, %rax
	movq	%rax, %rdx
	movl	$39, %esi
	movabsq	$.LC2, %rax
	movq	%rax, %rdi
	movl	$0, %eax
	movabsq	$dbg_panic, %r9
	call	*%r9
.LVL23:
.L59:
	.loc 1 40 15
	movabsq	$curthr, %rax
	movq	(%rax), %rax
	movq	152(%rax), %rdx
	.loc 1 40 36
	subq	$1, %rdx
	movq	%rdx, 152(%rax)
.L63:
	.loc 1 42 1
	nop
.LBE28:
.LBE27:
	.loc 1 253 1
	nop
	leave
	.cfi_restore 6
	.cfi_def_cfa 7, 8
	ret
	.cfi_endproc
.LFE22:
	.size	sched_switch, .-sched_switch
	.section	.rodata
.LC8:
	.string	"curthr->kt_state == KT_ON_CPU"
	.text
	.globl	sched_yield
	.type	sched_yield, @function
sched_yield:
.LFB23:
	.loc 1 260 1
	.cfi_startproc
	pushq	%rbp
	.cfi_def_cfa_offset 16
	.cfi_offset 6, -16
	movq	%rsp, %rbp
	.cfi_def_cfa_register 6
	.loc 1 261 5
	movabsq	$curthr, %rax
	movq	(%rax), %rax
	movl	96(%rax), %eax
	cmpl	$1, %eax
	je	.L65
	.loc 1 261 5 is_stmt 0 discriminator 1
	movabsq	$.LC8, %r8
	movabsq	$.LC1, %rax
	movq	%rax, %rcx
	movabsq	$__func__.3, %rax
	movq	%rax, %rdx
	movl	$261, %esi
	movabsq	$.LC2, %rax
	movq	%rax, %rdi
	movl	$0, %eax
	movabsq	$dbg_panic, %r9
	call	*%r9
.LVL24:
.L65:
	.loc 1 262 11 is_stmt 1
	movabsq	$curthr, %rax
	movq	(%rax), %rax
	.loc 1 262 22
	movl	$2, 96(%rax)
	.loc 1 263 5
	movabsq	$kt_runq, %rax
	movq	%rax, %rdi
	movabsq	$sched_switch, %rax
	call	*%rax
.LVL25:
	.loc 1 264 1
	nop
	popq	%rbp
	.cfi_restore 6
	.cfi_def_cfa 7, 8
	ret
	.cfi_endproc
.LFE23:
	.size	sched_yield, .-sched_yield
	.section	.rodata
	.align 8
.LC9:
	.string	"thr != curthr && \"can't make the current thread runnable - already on CPU!\""
	.text
	.globl	sched_make_runnable
	.type	sched_make_runnable, @function
sched_make_runnable:
.LFB24:
	.loc 1 277 1
	.cfi_startproc
	pushq	%rbp
	.cfi_def_cfa_offset 16
	.cfi_offset 6, -16
	movq	%rsp, %rbp
	.cfi_def_cfa_register 6
	subq	$32, %rsp
	movq	%rdi, -24(%rbp)
	.loc 1 279 5
	movabsq	$curthr, %rax
	movq	(%rax), %rax
	cmpq	%rax, -24(%rbp)
	jne	.L67
	.loc 1 279 5 is_stmt 0 discriminator 1
	movabsq	$.LC9, %r8
	movabsq	$.LC1, %rax
	movq	%rax, %rcx
	movabsq	$__func__.2, %rax
	movq	%rax, %rdx
	movl	$279, %esi
	movabsq	$.LC2, %rax
	movq	%rax, %rdi
	movl	$0, %eax
	movabsq	$dbg_panic, %r9
	call	*%r9
.LVL26:
.L67:
	.loc 1 281 19 is_stmt 1
	movl	$224, %edi
	movabsq	$intr_setipl, %rax
	call	*%rax
.LVL27:
	movb	%al, -1(%rbp)
	.loc 1 284 19
	movq	-24(%rbp), %rax
	movl	$2, 96(%rax)
	.loc 1 285 5
	movq	-24(%rbp), %rax
	movq	%rax, %rsi
	movabsq	$kt_runq, %rax
	movq	%rax, %rdi
	movabsq	$ktqueue_enqueue, %rax
	call	*%rax
.LVL28:
	.loc 1 286 5
	movzbl	-1(%rbp), %eax
	movl	%eax, %edi
	movabsq	$intr_setipl, %rax
	call	*%rax
.LVL29:
	.loc 1 288 1
	nop
	leave
	.cfi_restore 6
	.cfi_def_cfa 7, 8
	ret
	.cfi_endproc
.LFE24:
	.size	sched_make_runnable, .-sched_make_runnable
	.globl	sched_sleep_on
	.type	sched_sleep_on, @function
sched_sleep_on:
.LFB25:
	.loc 1 304 1
	.cfi_startproc
	pushq	%rbp
	.cfi_def_cfa_offset 16
	.cfi_offset 6, -16
	movq	%rsp, %rbp
	.cfi_def_cfa_register 6
	subq	$32, %rsp
	movq	%rdi, -24(%rbp)
	.loc 1 306 19
	movl	$224, %edi
	movabsq	$intr_setipl, %rax
	call	*%rax
.LVL30:
	movb	%al, -1(%rbp)
	.loc 1 307 11
	movabsq	$curthr, %rax
	movq	(%rax), %rax
	.loc 1 307 22
	movl	$3, 96(%rax)
	.loc 1 308 5
	movq	-24(%rbp), %rax
	movq	%rax, %rdi
	movabsq	$sched_switch, %rax
	call	*%rax
.LVL31:
	.loc 1 309 5
	movzbl	-1(%rbp), %eax
	movl	%eax, %edi
	movabsq	$intr_setipl, %rax
	call	*%rax
.LVL32:
	.loc 1 311 1
	nop
	leave
	.cfi_restore 6
	.cfi_def_cfa 7, 8
	ret
	.cfi_endproc
.LFE25:
	.size	sched_sleep_on, .-sched_sleep_on
	.section	.rodata
	.align 8
.LC10:
	.string	"(thr->kt_state == KT_SLEEP) || (thr->kt_state == KT_SLEEP_CANCELLABLE)"
	.text
	.globl	sched_wakeup_on
	.type	sched_wakeup_on, @function
sched_wakeup_on:
.LFB26:
	.loc 1 325 1
	.cfi_startproc
	pushq	%rbp
	.cfi_def_cfa_offset 16
	.cfi_offset 6, -16
	movq	%rsp, %rbp
	.cfi_def_cfa_register 6
	subq	$32, %rsp
	movq	%rdi, -24(%rbp)
	movq	%rsi, -32(%rbp)
	.loc 1 327 22
	movq	-24(%rbp), %rax
	movq	%rax, %rdi
	movabsq	$ktqueue_dequeue, %rax
	call	*%rax
.LVL33:
	movq	%rax, -8(%rbp)
	.loc 1 328 8
	cmpq	$0, -32(%rbp)
	je	.L70
	.loc 1 330 14
	movq	-32(%rbp), %rax
	movq	-8(%rbp), %rdx
	movq	%rdx, (%rax)
.L70:
	.loc 1 332 8
	cmpq	$0, -8(%rbp)
	je	.L71
	.loc 1 334 9
	movq	-8(%rbp), %rax
	movl	96(%rax), %eax
	cmpl	$3, %eax
	je	.L71
	.loc 1 334 9 is_stmt 0 discriminator 1
	movq	-8(%rbp), %rax
	movl	96(%rax), %eax
	cmpl	$4, %eax
	je	.L71
	.loc 1 334 9 discriminator 2
	movabsq	$.LC10, %r8
	movabsq	$.LC1, %rax
	movq	%rax, %rcx
	movabsq	$__func__.1, %rax
	movq	%rax, %rdx
	movl	$334, %esi
	movabsq	$.LC2, %rax
	movq	%rax, %rdi
	movl	$0, %eax
	movabsq	$dbg_panic, %r9
	call	*%r9
.LVL34:
.L71:
	.loc 1 338 8 is_stmt 1
	cmpq	$0, -8(%rbp)
	je	.L73
	.loc 1 342 9
	movq	-8(%rbp), %rax
	movq	%rax, %rdi
	movabsq	$sched_make_runnable, %rax
	call	*%rax
.LVL35:
.L73:
	.loc 1 345 1
	nop
	leave
	.cfi_restore 6
	.cfi_def_cfa 7, 8
	ret
	.cfi_endproc
.LFE26:
	.size	sched_wakeup_on, .-sched_wakeup_on
	.globl	sched_broadcast_on
	.type	sched_broadcast_on, @function
sched_broadcast_on:
.LFB27:
	.loc 1 351 1
	.cfi_startproc
	pushq	%rbp
	.cfi_def_cfa_offset 16
	.cfi_offset 6, -16
	movq	%rsp, %rbp
	.cfi_def_cfa_register 6
	subq	$32, %rsp
	movq	%rdi, -24(%rbp)
	.loc 1 353 16
	movq	$0, -8(%rbp)
.L75:
	.loc 1 356 9 discriminator 1
	leaq	-8(%rbp), %rdx
	movq	-24(%rbp), %rax
	movq	%rdx, %rsi
	movq	%rax, %rdi
	movabsq	$sched_wakeup_on, %rax
	call	*%rax
.LVL36:
	.loc 1 357 14 discriminator 1
	movq	-8(%rbp), %rax
	testq	%rax, %rax
	jne	.L75
	.loc 1 359 1
	nop
	nop
	leave
	.cfi_restore 6
	.cfi_def_cfa 7, 8
	ret
	.cfi_endproc
.LFE27:
	.size	sched_broadcast_on, .-sched_broadcast_on
	.section	.rodata
.LC11:
	.string	"!intr_enabled()"
	.align 8
.LC12:
	.string	"!curthr || curthr->kt_state != KT_ON_CPU"
	.align 8
.LC13:
	.string	"next_thread->kt_state == KT_RUNNABLE"
.LC14:
	.string	"next_thread->kt_proc"
	.align 8
.LC15:
	.string	"mapped_paddr == expected_paddr"
	.text
	.globl	core_switch
	.type	core_switch, @function
core_switch:
.LFB28:
	.loc 1 375 1
	.cfi_startproc
	pushq	%rbp
	.cfi_def_cfa_offset 16
	.cfi_offset 6, -16
	movq	%rsp, %rbp
	.cfi_def_cfa_register 6
	pushq	%rbx
	subq	$40, %rsp
	.cfi_offset 3, -24
.L87:
.LBB29:
.LBB30:
.LBB31:
	.loc 3 84 5
#APP
# 84 "include/main/interrupt.h" 1
	pushf; pop %rax; and $0x200, %rax;
# 0 "" 2
#NO_APP
	movq	%rax, -40(%rbp)
	.loc 3 86 12
	movq	-40(%rbp), %rax
.LBE31:
.LBE30:
	.loc 1 378 9
	testq	%rax, %rax
	je	.L78
	.loc 1 378 9 is_stmt 0 discriminator 1
	movabsq	$.LC11, %r8
	movabsq	$.LC1, %rax
	movq	%rax, %rcx
	movabsq	$__func__.0, %rax
	movq	%rax, %rdx
	movl	$378, %esi
	movabsq	$.LC2, %rax
	movq	%rax, %rdi
	movl	$0, %eax
	movabsq	$dbg_panic, %r9
	call	*%r9
.LVL37:
.L78:
	.loc 1 379 9 is_stmt 1
	movabsq	$curthr, %rax
	movq	(%rax), %rax
	testq	%rax, %rax
	je	.L79
	.loc 1 379 9 is_stmt 0 discriminator 1
	movabsq	$curthr, %rax
	movq	(%rax), %rax
	movl	96(%rax), %eax
	cmpl	$1, %eax
	jne	.L79
	.loc 1 379 9 discriminator 2
	movabsq	$.LC12, %r8
	movabsq	$.LC1, %rax
	movq	%rax, %rcx
	movabsq	$__func__.0, %rax
	movq	%rax, %rdx
	movl	$379, %esi
	movabsq	$.LC2, %rax
	movq	%rax, %rdi
	movl	$0, %eax
	movabsq	$dbg_panic, %r9
	call	*%r9
.LVL38:
.L79:
	.loc 1 381 20 is_stmt 1
	movabsq	$curcore, %rax
	movq	56(%rax), %rax
	.loc 1 381 12
	testq	%rax, %rax
	je	.L80
	.loc 1 383 13
	movabsq	$curthr, %rax
	movq	(%rax), %rdx
	movabsq	$curcore, %rax
	movq	56(%rax), %rax
	movq	%rdx, %rsi
	movq	%rax, %rdi
	movabsq	$ktqueue_enqueue, %rax
	call	*%rax
.LVL39:
.L80:
	.loc 1 386 17
	movabsq	$curproc, %rax
	movabsq	$idleproc, %rbx
	movq	%rbx, (%rax)
	.loc 1 387 16
	movabsq	$curthr, %rax
	movq	$0, (%rax)
	.loc 1 389 20
	movq	$0, -48(%rbp)
.L83:
	.loc 1 392 27
	movabsq	$kt_runq, %rax
	movq	%rax, %rdi
	movabsq	$ktqueue_dequeue, %rax
	call	*%rax
.LVL40:
	.loc 1 392 25
	movq	%rax, -48(%rbp)
	.loc 1 394 17
	movq	-48(%rbp), %rax
	.loc 1 394 16
	testq	%rax, %rax
	jne	.L89
.LBB32:
.LBB33:
	.loc 3 105 5
#APP
# 105 "include/main/interrupt.h" 1
	sti; hlt
# 0 "" 2
	.loc 3 106 1
#NO_APP
	nop
.LBE33:
.LBE32:
.LBB34:
.LBB35:
	.loc 3 91 37
#APP
# 91 "include/main/interrupt.h" 1
	cli
# 0 "" 2
	.loc 3 91 62
#NO_APP
	nop
.LBE35:
.LBE34:
	.loc 1 392 25
	jmp	.L83
.L89:
	.loc 1 395 17
	nop
	.loc 1 401 9
	movq	-48(%rbp), %rax
	movl	96(%rax), %eax
	cmpl	$2, %eax
	je	.L84
	.loc 1 401 9 is_stmt 0 discriminator 1
	movabsq	$.LC13, %r8
	movabsq	$.LC1, %rax
	movq	%rax, %rcx
	movabsq	$__func__.0, %rax
	movq	%rax, %rdx
	movl	$401, %esi
	movabsq	$.LC2, %rax
	movq	%rax, %rdi
	movl	$0, %eax
	movabsq	$dbg_panic, %r9
	call	*%r9
.LVL41:
.L84:
	.loc 1 402 9 is_stmt 1
	movq	-48(%rbp), %rax
	movq	72(%rax), %rax
	testq	%rax, %rax
	jne	.L85
	.loc 1 402 9 is_stmt 0 discriminator 1
	movabsq	$.LC14, %r8
	movabsq	$.LC1, %rax
	movq	%rax, %rcx
	movabsq	$__func__.0, %rax
	movq	%rax, %rdx
	movl	$402, %esi
	movabsq	$.LC2, %rax
	movq	%rax, %rdi
	movl	$0, %eax
	movabsq	$dbg_panic, %r9
	call	*%r9
.LVL42:
.L85:
	.loc 1 406 46 is_stmt 1
	movq	-48(%rbp), %rax
	.loc 1 406 9
	movq	24(%rax), %rax
	movq	%rax, %rdi
	movabsq	$map_in_core_specific_data, %rax
	call	*%rax
.LVL43:
	.loc 1 410 34
	leaq	-48(%rbp), %rdx
	.loc 1 411 24
	movq	-48(%rbp), %rax
	.loc 1 410 34
	movq	24(%rax), %rax
	movq	%rdx, %rsi
	movq	%rax, %rdi
	movabsq	$pt_virt_to_phys_helper, %rax
	call	*%rax
.LVL44:
	movq	%rax, -24(%rbp)
	.loc 1 413 13
	leaq	-48(%rbp), %rbx
	movl	$0, %eax
	movabsq	$pt_get, %rdx
	call	*%rdx
.LVL45:
	movq	%rbx, %rsi
	movq	%rax, %rdi
	movabsq	$pt_virt_to_phys_helper, %rax
	call	*%rax
.LVL46:
	movq	%rax, -32(%rbp)
	.loc 1 414 9
	movq	-24(%rbp), %rax
	cmpq	-32(%rbp), %rax
	je	.L86
	.loc 1 414 9 is_stmt 0 discriminator 1
	movabsq	$.LC15, %r8
	movabsq	$.LC1, %rax
	movq	%rax, %rcx
	movabsq	$__func__.0, %rax
	movq	%rax, %rdx
	movl	$414, %esi
	movabsq	$.LC2, %rax
	movq	%rax, %rdi
	movl	$0, %eax
	movabsq	$dbg_panic, %r9
	call	*%r9
.LVL47:
.L86:
	.loc 1 416 16 is_stmt 1
	movq	-48(%rbp), %rax
	movabsq	$curthr, %rdx
	movq	%rax, (%rdx)
	.loc 1 417 15
	movabsq	$curthr, %rax
	movq	(%rax), %rax
	.loc 1 417 26
	movl	$1, 96(%rax)
	.loc 1 418 25
	movabsq	$curthr, %rax
	movq	(%rax), %rax
	movq	72(%rax), %rax
	.loc 1 418 17
	movabsq	$curproc, %rdx
	movq	%rax, (%rdx)
	.loc 1 419 48
	movabsq	$curthr, %rax
	movq	(%rax), %rax
	.loc 1 419 9
	movq	%rax, %rsi
	movabsq	$curcore+8, %rax
	movq	%rax, %rdi
	movabsq	$context_switch, %rax
	call	*%rax
.LVL48:
.LBE29:
	.loc 1 377 5
	jmp	.L87
	.cfi_endproc
.LFE28:
	.size	core_switch, .-core_switch
	.section	.rodata
	.align 16
	.type	__func__.9, @object
	.size	__func__.9, 18
__func__.9:
	.string	"preemption_enable"
	.align 16
	.type	__func__.8, @object
	.size	__func__.8, 17
__func__.8:
	.string	"preemption_reset"
	.align 16
	.type	__func__.7, @object
	.size	__func__.7, 16
__func__.7:
	.string	"ktqueue_enqueue"
	.align 8
	.type	__func__.6, @object
	.size	__func__.6, 15
__func__.6:
	.string	"ktqueue_remove"
	.align 8
	.type	__func__.5, @object
	.size	__func__.5, 13
__func__.5:
	.string	"sched_cancel"
	.align 8
	.type	__func__.4, @object
	.size	__func__.4, 13
__func__.4:
	.string	"sched_switch"
	.align 8
	.type	__func__.3, @object
	.size	__func__.3, 12
__func__.3:
	.string	"sched_yield"
	.align 16
	.type	__func__.2, @object
	.size	__func__.2, 20
__func__.2:
	.string	"sched_make_runnable"
	.align 16
	.type	__func__.1, @object
	.size	__func__.1, 16
__func__.1:
	.string	"sched_wakeup_on"
	.align 8
	.type	__func__.0, @object
	.size	__func__.0, 12
__func__.0:
	.string	"core_switch"
	.text
.Letext0:
	.file 4 "include/types.h"
	.file 5 "include/util/list.h"
	.file 6 "include/proc/sched.h"
	.file 7 "include/proc/kthread.h"
	.file 8 "include/vm/vmmap.h"
	.file 9 "include/proc/proc.h"
	.file 10 "include/mm/pagetable.h"
	.file 11 "include/proc/context.h"
	.file 12 "include/proc/core.h"
	.file 13 "include/main/smp.h"
	.file 14 "include/globals.h"
	.section	.note.GNU-stack,"",@progbits
