	.file	"blockdev.c"
	.text
.Ltext0:
	.file 1 "drivers/blockdev.c"
	.type	intr_enabled, @function
intr_enabled:
.LFB0:
	.file 2 "include/main/interrupt.h"
	.loc 2 82 1
	.cfi_startproc
	pushq	%rbp
	.cfi_def_cfa_offset 16
	.cfi_offset 6, -16
	movq	%rsp, %rbp
	.cfi_def_cfa_register 6
	subq	$16, %rsp
	.loc 2 84 5
#APP
# 84 "include/main/interrupt.h" 1
	pushf; pop %rax; and $0x200, %rax;
# 0 "" 2
#NO_APP
	movq	%rax, -8(%rbp)
	.loc 2 86 12
	movq	-8(%rbp), %rax
	.loc 2 87 1
	leave
	.cfi_restore 6
	.cfi_def_cfa 7, 8
	ret
	.cfi_endproc
.LFE0:
	.size	intr_enabled, .-intr_enabled
	.type	intr_enable, @function
intr_enable:
.LFB1:
	.loc 2 89 34
	.cfi_startproc
	pushq	%rbp
	.cfi_def_cfa_offset 16
	.cfi_offset 6, -16
	movq	%rsp, %rbp
	.cfi_def_cfa_register 6
	.loc 2 89 36
#APP
# 89 "include/main/interrupt.h" 1
	sti
# 0 "" 2
	.loc 2 89 61
#NO_APP
	nop
	popq	%rbp
	.cfi_restore 6
	.cfi_def_cfa 7, 8
	ret
	.cfi_endproc
.LFE1:
	.size	intr_enable, .-intr_enable
	.type	intr_disable, @function
intr_disable:
.LFB2:
	.loc 2 91 35
	.cfi_startproc
	pushq	%rbp
	.cfi_def_cfa_offset 16
	.cfi_offset 6, -16
	movq	%rsp, %rbp
	.cfi_def_cfa_register 6
	.loc 2 91 37
#APP
# 91 "include/main/interrupt.h" 1
	cli
# 0 "" 2
	.loc 2 91 62
#NO_APP
	nop
	popq	%rbp
	.cfi_restore 6
	.cfi_def_cfa 7, 8
	ret
	.cfi_endproc
.LFE2:
	.size	intr_disable, .-intr_disable
	.type	intr_wait, @function
intr_wait:
.LFB3:
	.loc 2 98 1
	.cfi_startproc
	pushq	%rbp
	.cfi_def_cfa_offset 16
	.cfi_offset 6, -16
	movq	%rsp, %rbp
	.cfi_def_cfa_register 6
	.loc 2 105 5
#APP
# 105 "include/main/interrupt.h" 1
	sti; hlt
# 0 "" 2
	.loc 2 106 1
#NO_APP
	nop
	popq	%rbp
	.cfi_restore 6
	.cfi_def_cfa 7, 8
	ret
	.cfi_endproc
.LFE3:
	.size	intr_wait, .-intr_wait
	.type	equals, @function
equals:
.LFB4:
	.file 3 "include/util/debug.h"
	.loc 3 280 1
	.cfi_startproc
	pushq	%rbp
	.cfi_def_cfa_offset 16
	.cfi_offset 6, -16
	movq	%rsp, %rbp
	.cfi_def_cfa_register 6
	subq	$16, %rsp
	movq	%rdi, -8(%rbp)
	movq	%rsi, -16(%rbp)
	.loc 3 281 14
	movq	-8(%rbp), %rax
	cmpq	-16(%rbp), %rax
	sete	%al
	movzbl	%al, %eax
	.loc 3 282 1
	leave
	.cfi_restore 6
	.cfi_def_cfa 7, 8
	ret
	.cfi_endproc
.LFE4:
	.size	equals, .-equals
	.type	notequals, @function
notequals:
.LFB5:
	.loc 3 284 39
	.cfi_startproc
	pushq	%rbp
	.cfi_def_cfa_offset 16
	.cfi_offset 6, -16
	movq	%rsp, %rbp
	.cfi_def_cfa_register 6
	subq	$16, %rsp
	movq	%rdi, -8(%rbp)
	movq	%rsi, -16(%rbp)
	.loc 3 284 50
	movq	-8(%rbp), %rax
	cmpq	-16(%rbp), %rax
	setne	%al
	movzbl	%al, %eax
	.loc 3 284 56
	leave
	.cfi_restore 6
	.cfi_def_cfa 7, 8
	ret
	.cfi_endproc
.LFE5:
	.size	notequals, .-notequals
	.type	lessthan, @function
lessthan:
.LFB6:
	.loc 3 286 38
	.cfi_startproc
	pushq	%rbp
	.cfi_def_cfa_offset 16
	.cfi_offset 6, -16
	movq	%rsp, %rbp
	.cfi_def_cfa_register 6
	subq	$16, %rsp
	movq	%rdi, -8(%rbp)
	movq	%rsi, -16(%rbp)
	.loc 3 286 49
	movq	-8(%rbp), %rax
	cmpq	-16(%rbp), %rax
	setl	%al
	movzbl	%al, %eax
	.loc 3 286 54
	leave
	.cfi_restore 6
	.cfi_def_cfa 7, 8
	ret
	.cfi_endproc
.LFE6:
	.size	lessthan, .-lessthan
	.type	greaterthan, @function
greaterthan:
.LFB7:
	.loc 3 288 41
	.cfi_startproc
	pushq	%rbp
	.cfi_def_cfa_offset 16
	.cfi_offset 6, -16
	movq	%rsp, %rbp
	.cfi_def_cfa_register 6
	subq	$16, %rsp
	movq	%rdi, -8(%rbp)
	movq	%rsi, -16(%rbp)
	.loc 3 288 52
	movq	-8(%rbp), %rax
	cmpq	-16(%rbp), %rax
	setg	%al
	movzbl	%al, %eax
	.loc 3 288 57
	leave
	.cfi_restore 6
	.cfi_def_cfa 7, 8
	ret
	.cfi_endproc
.LFE7:
	.size	greaterthan, .-greaterthan
	.type	lessthaneq, @function
lessthaneq:
.LFB8:
	.loc 3 290 40
	.cfi_startproc
	pushq	%rbp
	.cfi_def_cfa_offset 16
	.cfi_offset 6, -16
	movq	%rsp, %rbp
	.cfi_def_cfa_register 6
	subq	$16, %rsp
	movq	%rdi, -8(%rbp)
	movq	%rsi, -16(%rbp)
	.loc 3 290 51
	movq	-8(%rbp), %rax
	cmpq	-16(%rbp), %rax
	setle	%al
	movzbl	%al, %eax
	.loc 3 290 57
	leave
	.cfi_restore 6
	.cfi_def_cfa 7, 8
	ret
	.cfi_endproc
.LFE8:
	.size	lessthaneq, .-lessthaneq
	.type	greaterthaneq, @function
greaterthaneq:
.LFB9:
	.loc 3 292 43
	.cfi_startproc
	pushq	%rbp
	.cfi_def_cfa_offset 16
	.cfi_offset 6, -16
	movq	%rsp, %rbp
	.cfi_def_cfa_register 6
	subq	$16, %rsp
	movq	%rdi, -8(%rbp)
	movq	%rsi, -16(%rbp)
	.loc 3 292 54
	movq	-8(%rbp), %rax
	cmpq	-16(%rbp), %rax
	setge	%al
	movzbl	%al, %eax
	.loc 3 292 60
	leave
	.cfi_restore 6
	.cfi_def_cfa 7, 8
	ret
	.cfi_endproc
.LFE9:
	.size	greaterthaneq, .-greaterthaneq
	.type	__atomic_add_unless, @function
__atomic_add_unless:
.LFB10:
	.file 4 "include/util/atomic.h"
	.loc 4 9 1
	.cfi_startproc
	pushq	%rbp
	.cfi_def_cfa_offset 16
	.cfi_offset 6, -16
	movq	%rsp, %rbp
	.cfi_def_cfa_register 6
	subq	$32, %rsp
	movq	%rdi, -24(%rbp)
	movl	%esi, -28(%rbp)
	movl	%edx, -32(%rbp)
	.loc 4 11 9
	movq	-24(%rbp), %rax
	movl	$0, %edx
	lock xaddl	%edx, (%rax)
	.loc 4 11 7
	movl	%edx, -4(%rbp)
	.loc 4 12 11
	jmp	.L19
.L21:
	.loc 4 13 11
	movl	-8(%rbp), %eax
	movl	%eax, -4(%rbp)
.L19:
	.loc 4 12 19
	movl	-4(%rbp), %eax
	cmpl	-32(%rbp), %eax
	je	.L20
	.loc 4 12 65 discriminator 1
	movl	-4(%rbp), %edx
	movl	-28(%rbp), %eax
	addl	%edx, %eax
	.loc 4 12 29 discriminator 1
	movl	%eax, %ecx
	movl	-4(%rbp), %eax
	movq	-24(%rbp), %rdx
	lock cmpxchgl	%ecx, (%rdx)
	.loc 4 12 27 discriminator 1
	movl	%eax, -8(%rbp)
	.loc 4 12 19 discriminator 1
	movl	-8(%rbp), %eax
	cmpl	-4(%rbp), %eax
	jne	.L21
.L20:
	.loc 4 14 12
	movl	-4(%rbp), %eax
	.loc 4 15 1
	leave
	.cfi_restore 6
	.cfi_def_cfa 7, 8
	ret
	.cfi_endproc
.LFE10:
	.size	__atomic_add_unless, .-__atomic_add_unless
	.type	atomic_set, @function
atomic_set:
.LFB11:
	.loc 4 17 51
	.cfi_startproc
	pushq	%rbp
	.cfi_def_cfa_offset 16
	.cfi_offset 6, -16
	movq	%rsp, %rbp
	.cfi_def_cfa_register 6
	subq	$16, %rsp
	movq	%rdi, -8(%rbp)
	movl	%esi, -12(%rbp)
	.loc 4 17 56
	movq	-8(%rbp), %rax
	movl	-12(%rbp), %edx
	movl	%edx, (%rax)
	.loc 4 17 61
	nop
	leave
	.cfi_restore 6
	.cfi_def_cfa 7, 8
	ret
	.cfi_endproc
.LFE11:
	.size	atomic_set, .-atomic_set
	.type	atomic_inc, @function
atomic_inc:
.LFB12:
	.loc 4 19 44
	.cfi_startproc
	pushq	%rbp
	.cfi_def_cfa_offset 16
	.cfi_offset 6, -16
	movq	%rsp, %rbp
	.cfi_def_cfa_register 6
	subq	$8, %rsp
	movq	%rdi, -8(%rbp)
	.loc 4 19 46
	movq	-8(%rbp), %rax
	lock addl	$1, (%rax)
	.loc 4 19 74
	nop
	leave
	.cfi_restore 6
	.cfi_def_cfa 7, 8
	ret
	.cfi_endproc
.LFE12:
	.size	atomic_inc, .-atomic_inc
	.type	atomic_dec_and_test, @function
atomic_dec_and_test:
.LFB13:
	.loc 4 22 1
	.cfi_startproc
	pushq	%rbp
	.cfi_def_cfa_offset 16
	.cfi_offset 6, -16
	movq	%rsp, %rbp
	.cfi_def_cfa_register 6
	subq	$8, %rsp
	movq	%rdi, -8(%rbp)
	.loc 4 23 12
	movq	-8(%rbp), %rdx
	movl	$1, %eax
	negl	%eax
	movl	%eax, %ecx
	movl	%ecx, %eax
	lock xaddl	%eax, (%rdx)
	addl	%ecx, %eax
	.loc 4 23 39
	testl	%eax, %eax
	sete	%al
	movzbl	%al, %eax
	.loc 4 24 1
	leave
	.cfi_restore 6
	.cfi_def_cfa 7, 8
	ret
	.cfi_endproc
.LFE13:
	.size	atomic_dec_and_test, .-atomic_dec_and_test
	.type	atomic_inc_not_zero, @function
atomic_inc_not_zero:
.LFB14:
	.loc 4 27 1
	.cfi_startproc
	pushq	%rbp
	.cfi_def_cfa_offset 16
	.cfi_offset 6, -16
	movq	%rsp, %rbp
	.cfi_def_cfa_register 6
	subq	$40, %rsp
	movq	%rdi, -40(%rbp)
	movq	-40(%rbp), %rax
	movq	%rax, -8(%rbp)
	movl	$1, -12(%rbp)
	movl	$0, -16(%rbp)
.LBB4:
.LBB5:
	.loc 4 11 9
	movq	-8(%rbp), %rax
	movl	$0, %edx
	lock xaddl	%edx, (%rax)
	.loc 4 11 7
	movl	%edx, -20(%rbp)
	.loc 4 12 11
	jmp	.L28
.L30:
	.loc 4 13 11
	movl	-24(%rbp), %eax
	movl	%eax, -20(%rbp)
.L28:
	.loc 4 12 19
	movl	-16(%rbp), %eax
	cmpl	-20(%rbp), %eax
	je	.L29
	.loc 4 12 65
	movl	-12(%rbp), %edx
	movl	-20(%rbp), %eax
	addl	%edx, %eax
	.loc 4 12 29
	movl	%eax, %ecx
	movl	-20(%rbp), %eax
	movq	-8(%rbp), %rdx
	lock cmpxchgl	%ecx, (%rdx)
	.loc 4 12 27
	movl	%eax, -24(%rbp)
	.loc 4 12 19
	movl	-24(%rbp), %eax
	cmpl	-20(%rbp), %eax
	jne	.L30
.L29:
	.loc 4 14 12
	movl	-20(%rbp), %eax
.LBE5:
.LBE4:
	.loc 4 29 1
	leave
	.cfi_restore 6
	.cfi_def_cfa 7, 8
	ret
	.cfi_endproc
.LFE14:
	.size	atomic_inc_not_zero, .-atomic_inc_not_zero
	.data
	.type	px_interrupt_status_clear, @object
	.size	px_interrupt_status_clear, 4
px_interrupt_status_clear:
	.long	-1
	.type	px_interrupt_enable_all_enabled, @object
	.size	px_interrupt_enable_all_enabled, 4
px_interrupt_enable_all_enabled:
	.long	-1
	.align 16
	.type	blockdevs, @object
	.size	blockdevs, 16
blockdevs:
	.quad	blockdevs
	.quad	blockdevs
	.text
	.globl	blockdev_init
	.type	blockdev_init, @function
blockdev_init:
.LFB15:
	.loc 1 12 22
	.cfi_startproc
	pushq	%rbp
	.cfi_def_cfa_offset 16
	.cfi_offset 6, -16
	movq	%rsp, %rbp
	.cfi_def_cfa_register 6
	.loc 1 12 24
	movl	$0, %eax
	movabsq	$sata_init, %rdx
	call	*%rdx
.LVL0:
	.loc 1 12 37
	nop
	popq	%rbp
	.cfi_restore 6
	.cfi_def_cfa 7, 8
	ret
	.cfi_endproc
.LFE15:
	.size	blockdev_init, .-blockdev_init
	.globl	blockdev_register
	.type	blockdev_register, @function
blockdev_register:
.LFB16:
	.loc 1 15 1
	.cfi_startproc
	pushq	%rbp
	.cfi_def_cfa_offset 16
	.cfi_offset 6, -16
	movq	%rsp, %rbp
	.cfi_def_cfa_register 6
	subq	$32, %rsp
	movq	%rdi, -24(%rbp)
	.loc 1 16 8
	cmpq	$0, -24(%rbp)
	je	.L35
	.loc 1 16 20 discriminator 1
	movq	-24(%rbp), %rax
	movl	(%rax), %eax
	.loc 1 16 14 discriminator 1
	testl	%eax, %eax
	je	.L35
	.loc 1 16 49 discriminator 2
	movq	-24(%rbp), %rax
	movq	8(%rax), %rax
	.loc 1 16 42 discriminator 2
	testq	%rax, %rax
	jne	.L36
.L35:
	.loc 1 18 16
	movq	$-1, %rax
	jmp	.L37
.L36:
.LBB6:
	.loc 1 21 5
	movabsq	$blockdevs, %rax
	movq	(%rax), %rax
	subq	$16, %rax
	movq	%rax, -8(%rbp)
	movq	-8(%rbp), %rax
	movq	16(%rax), %rax
	subq	$16, %rax
	movq	%rax, -16(%rbp)
	jmp	.L38
.L40:
	.loc 1 23 16
	movq	-24(%rbp), %rax
	movl	(%rax), %edx
	.loc 1 23 29
	movq	-8(%rbp), %rax
	movl	(%rax), %eax
	.loc 1 23 12
	cmpl	%eax, %edx
	jne	.L39
	.loc 1 25 20
	movq	$-1, %rax
	jmp	.L37
.L39:
	.loc 1 21 5 discriminator 2
	movq	-16(%rbp), %rax
	movq	%rax, -8(%rbp)
	movq	-8(%rbp), %rax
	movq	16(%rax), %rax
	subq	$16, %rax
	movq	%rax, -16(%rbp)
.L38:
	.loc 1 21 5 is_stmt 0 discriminator 1
	movq	-8(%rbp), %rax
	leaq	16(%rax), %rdx
	movabsq	$blockdevs, %rax
	cmpq	%rax, %rdx
	jne	.L40
.LBE6:
	.loc 1 29 5 is_stmt 1
	movq	-24(%rbp), %rax
	addq	$16, %rax
	movq	%rax, %rsi
	movabsq	$blockdevs, %rax
	movq	%rax, %rdi
	movabsq	$list_insert_tail, %rax
	call	*%rax
.LVL1:
	.loc 1 30 12
	movl	$0, %eax
.L37:
	.loc 1 31 1
	leave
	.cfi_restore 6
	.cfi_def_cfa 7, 8
	ret
	.cfi_endproc
.LFE16:
	.size	blockdev_register, .-blockdev_register
	.globl	blockdev_lookup
	.type	blockdev_lookup, @function
blockdev_lookup:
.LFB17:
	.loc 1 34 1
	.cfi_startproc
	pushq	%rbp
	.cfi_def_cfa_offset 16
	.cfi_offset 6, -16
	movq	%rsp, %rbp
	.cfi_def_cfa_register 6
	subq	$24, %rsp
	movl	%edi, -20(%rbp)
.LBB7:
	.loc 1 35 5
	movabsq	$blockdevs, %rax
	movq	(%rax), %rax
	subq	$16, %rax
	movq	%rax, -8(%rbp)
	movq	-8(%rbp), %rax
	movq	16(%rax), %rax
	subq	$16, %rax
	movq	%rax, -16(%rbp)
	jmp	.L42
.L45:
	.loc 1 37 21
	movq	-8(%rbp), %rax
	movl	(%rax), %eax
	.loc 1 37 12
	cmpl	%eax, -20(%rbp)
	jne	.L43
	.loc 1 39 20
	movq	-8(%rbp), %rax
	jmp	.L44
.L43:
	.loc 1 35 5 discriminator 2
	movq	-16(%rbp), %rax
	movq	%rax, -8(%rbp)
	movq	-8(%rbp), %rax
	movq	16(%rax), %rax
	subq	$16, %rax
	movq	%rax, -16(%rbp)
.L42:
	.loc 1 35 5 is_stmt 0 discriminator 1
	movq	-8(%rbp), %rax
	leaq	16(%rax), %rdx
	movabsq	$blockdevs, %rax
	cmpq	%rax, %rdx
	jne	.L45
.LBE7:
	.loc 1 42 12 is_stmt 1
	movl	$0, %eax
.L44:
	.loc 1 43 1
	leave
	.cfi_restore 6
	.cfi_def_cfa 7, 8
	ret
	.cfi_endproc
.LFE17:
	.size	blockdev_lookup, .-blockdev_lookup
	.section	.rodata
.LC0:
	.string	"mobj && pf"
.LC1:
	.string	"assertion failed: %s"
.LC2:
	.string	"drivers/blockdev.c"
	.align 8
.LC3:
	.string	"pf->pf_pagenum <= (1UL << (8 * sizeof(blocknum_t)))"
	.text
	.globl	blockdev_fill_pframe
	.type	blockdev_fill_pframe, @function
blockdev_fill_pframe:
.LFB18:
	.loc 1 46 1
	.cfi_startproc
	pushq	%rbp
	.cfi_def_cfa_offset 16
	.cfi_offset 6, -16
	movq	%rsp, %rbp
	.cfi_def_cfa_register 6
	subq	$32, %rsp
	movq	%rdi, -24(%rbp)
	movq	%rsi, -32(%rbp)
	.loc 1 47 5
	cmpq	$0, -24(%rbp)
	je	.L47
	.loc 1 47 5 is_stmt 0 discriminator 2
	cmpq	$0, -32(%rbp)
	jne	.L48
.L47:
	.loc 1 47 5 discriminator 3
	movabsq	$.LC0, %r8
	movabsq	$.LC1, %rax
	movq	%rax, %rcx
	movabsq	$__func__.1, %rax
	movq	%rax, %rdx
	movl	$47, %esi
	movabsq	$.LC2, %rax
	movq	%rax, %rdi
	movl	$0, %eax
	movabsq	$dbg_panic, %r9
	call	*%r9
.LVL2:
.L48:
	.loc 1 48 5 is_stmt 1
	movq	-32(%rbp), %rax
	movq	(%rax), %rax
	movabsq	$4294967296, %rdx
	cmpq	%rax, %rdx
	jnb	.L49
	.loc 1 48 5 is_stmt 0 discriminator 1
	movabsq	$.LC3, %r8
	movabsq	$.LC1, %rax
	movq	%rax, %rcx
	movabsq	$__func__.1, %rax
	movq	%rax, %rdx
	movl	$48, %esi
	movabsq	$.LC2, %rax
	movq	%rax, %rdi
	movl	$0, %eax
	movabsq	$dbg_panic, %r9
	call	*%r9
.LVL3:
.L49:
	.loc 1 49 22 is_stmt 1
	movq	-24(%rbp), %rax
	subq	$208, %rax
	.loc 1 49 17
	movq	(%rax), %rax
	movq	%rax, -8(%rbp)
	.loc 1 50 14
	movq	-8(%rbp), %rax
	movq	8(%rax), %rax
	.loc 1 50 22
	movq	(%rax), %r8
	.loc 1 50 66
	movq	-32(%rbp), %rax
	movq	8(%rax), %rax
	.loc 1 50 12
	movl	%eax, %edx
	.loc 1 50 41
	movq	-32(%rbp), %rax
	movq	16(%rax), %rsi
	.loc 1 50 12
	movq	-8(%rbp), %rax
	movl	$1, %ecx
	movq	%rax, %rdi
	call	*%r8
.LVL4:
	.loc 1 51 1
	leave
	.cfi_restore 6
	.cfi_def_cfa 7, 8
	ret
	.cfi_endproc
.LFE18:
	.size	blockdev_fill_pframe, .-blockdev_fill_pframe
	.section	.rodata
.LC4:
	.string	"%s"
.LC5:
	.string	"C%ld P%ld "
.LC6:
	.string	"%s:%d %s(): "
.LC7:
	.string	"writing disk block %lu\n"
.LC8:
	.string	"\033[0m"
	.text
	.globl	blockdev_flush_pframe
	.type	blockdev_flush_pframe, @function
blockdev_flush_pframe:
.LFB19:
	.loc 1 54 1
	.cfi_startproc
	pushq	%rbp
	.cfi_def_cfa_offset 16
	.cfi_offset 6, -16
	movq	%rsp, %rbp
	.cfi_def_cfa_register 6
	subq	$32, %rsp
	movq	%rdi, -24(%rbp)
	movq	%rsi, -32(%rbp)
	.loc 1 55 5
	cmpq	$0, -24(%rbp)
	je	.L52
	.loc 1 55 5 is_stmt 0 discriminator 2
	cmpq	$0, -32(%rbp)
	jne	.L53
.L52:
	.loc 1 55 5 discriminator 3
	movabsq	$.LC0, %r8
	movabsq	$.LC1, %rax
	movq	%rax, %rcx
	movabsq	$__func__.0, %rax
	movq	%rax, %rdx
	movl	$55, %esi
	movabsq	$.LC2, %rax
	movq	%rax, %rdi
	movl	$0, %eax
	movabsq	$dbg_panic, %r9
	call	*%r9
.LVL5:
.L53:
	.loc 1 56 5 is_stmt 1
	movq	-32(%rbp), %rax
	movq	(%rax), %rax
	movabsq	$4294967296, %rdx
	cmpq	%rax, %rdx
	jnb	.L54
	.loc 1 56 5 is_stmt 0 discriminator 1
	movabsq	$.LC3, %r8
	movabsq	$.LC1, %rax
	movq	%rax, %rcx
	movabsq	$__func__.0, %rax
	movq	%rax, %rdx
	movl	$56, %esi
	movabsq	$.LC2, %rax
	movq	%rax, %rdi
	movl	$0, %eax
	movabsq	$dbg_panic, %r9
	call	*%r9
.LVL6:
.L54:
	.loc 1 57 5 is_stmt 1
	movabsq	$dbg_modes, %rax
	movq	(%rax), %rax
	andl	$2097152, %eax
	testq	%rax, %rax
	je	.L55
	.loc 1 57 5 is_stmt 0 discriminator 1
	movl	$2097152, %edi
	movabsq	$dbg_color, %rax
	call	*%rax
.LVL7:
	movq	%rax, %rsi
	movabsq	$.LC4, %rax
	movq	%rax, %rdi
	movl	$0, %eax
	movabsq	$dbg_print, %rdx
	call	*%rdx
.LVL8:
	movabsq	$curproc, %rax
	movq	(%rax), %rax
	testq	%rax, %rax
	je	.L56
	.loc 1 57 5 discriminator 2
	movabsq	$curproc, %rax
	movq	(%rax), %rax
	movl	(%rax), %eax
	cltq
	jmp	.L57
.L56:
	.loc 1 57 5 discriminator 3
	movq	$-1, %rax
.L57:
	.loc 1 57 5 discriminator 5
	movabsq	$curcore, %rdx
	movq	(%rdx), %rcx
	movq	%rax, %rdx
	movq	%rcx, %rsi
	movabsq	$.LC5, %rax
	movq	%rax, %rdi
	movl	$0, %eax
	movabsq	$dbg_print, %rcx
	call	*%rcx
.LVL9:
	movabsq	$__func__.0, %rax
	movq	%rax, %rcx
	movl	$57, %edx
	movabsq	$.LC2, %rax
	movq	%rax, %rsi
	movabsq	$.LC6, %rax
	movq	%rax, %rdi
	movl	$0, %eax
	movabsq	$dbg_print, %r8
	call	*%r8
.LVL10:
	movq	-32(%rbp), %rax
	movq	(%rax), %rax
	movq	%rax, %rsi
	movabsq	$.LC7, %rax
	movq	%rax, %rdi
	movl	$0, %eax
	movabsq	$dbg_print, %rdx
	call	*%rdx
.LVL11:
	movabsq	$.LC8, %rax
	movq	%rax, %rsi
	movabsq	$.LC4, %rax
	movq	%rax, %rdi
	movl	$0, %eax
	movabsq	$dbg_print, %rdx
	call	*%rdx
.LVL12:
.L55:
	.loc 1 58 22 is_stmt 1
	movq	-24(%rbp), %rax
	subq	$208, %rax
	.loc 1 58 17
	movq	(%rax), %rax
	movq	%rax, -8(%rbp)
	.loc 1 59 14
	movq	-8(%rbp), %rax
	movq	8(%rax), %rax
	.loc 1 59 22
	movq	8(%rax), %r8
	.loc 1 59 67
	movq	-32(%rbp), %rax
	movq	8(%rax), %rax
	.loc 1 59 12
	movl	%eax, %edx
	.loc 1 59 42
	movq	-32(%rbp), %rax
	movq	16(%rax), %rsi
	.loc 1 59 12
	movq	-8(%rbp), %rax
	movl	$1, %ecx
	movq	%rax, %rdi
	call	*%r8
.LVL13:
	.loc 1 60 1
	leave
	.cfi_restore 6
	.cfi_def_cfa 7, 8
	ret
	.cfi_endproc
.LFE19:
	.size	blockdev_flush_pframe, .-blockdev_flush_pframe
	.section	.rodata
	.align 16
	.type	__func__.1, @object
	.size	__func__.1, 21
__func__.1:
	.string	"blockdev_fill_pframe"
	.align 16
	.type	__func__.0, @object
	.size	__func__.0, 22
__func__.0:
	.string	"blockdev_flush_pframe"
	.text
.Letext0:
	.file 5 "include/types.h"
	.file 6 "include/util/list.h"
	.file 7 "include/vm/vmmap.h"
	.file 8 "include/proc/proc.h"
	.file 9 "include/mm/mobj.h"
	.file 10 "include/mm/pagetable.h"
	.file 11 "include/proc/context.h"
	.file 12 "include/proc/sched.h"
	.file 13 "include/proc/core.h"
	.file 14 "include/proc/kthread.h"
	.file 15 "include/fs/vnode.h"
	.file 16 "include/globals.h"
	.file 17 "include/proc/kmutex.h"
	.file 18 "include/util/btree.h"
	.file 19 "include/mm/pframe.h"
	.file 20 "include/drivers/blockdev.h"
	.file 21 "include/drivers/disk/ahci.h"
	.file 22 "include/fs/vfs.h"
	.file 23 "include/drivers/chardev.h"
	.file 24 "include/fs/s5fs/s5fs.h"
	.file 25 "include/drivers/disk/sata.h"
	.section	.note.GNU-stack,"",@progbits
