	.file	"chardev.c"
	.text
.Ltext0:
	.file 1 "drivers/chardev.c"
	.type	intr_enabled, @function
intr_enabled:
.LFB0:
	.file 2 "include/main/interrupt.h"
	.loc 2 82 1
	.cfi_startproc
	pushq	%rbp
	.cfi_def_cfa_offset 16
	.cfi_offset 6, -16
	movq	%rsp, %rbp
	.cfi_def_cfa_register 6
	subq	$16, %rsp
	.loc 2 84 5
#APP
# 84 "include/main/interrupt.h" 1
	pushf; pop %rax; and $0x200, %rax;
# 0 "" 2
#NO_APP
	movq	%rax, -8(%rbp)
	.loc 2 86 12
	movq	-8(%rbp), %rax
	.loc 2 87 1
	leave
	.cfi_restore 6
	.cfi_def_cfa 7, 8
	ret
	.cfi_endproc
.LFE0:
	.size	intr_enabled, .-intr_enabled
	.type	intr_enable, @function
intr_enable:
.LFB1:
	.loc 2 89 34
	.cfi_startproc
	pushq	%rbp
	.cfi_def_cfa_offset 16
	.cfi_offset 6, -16
	movq	%rsp, %rbp
	.cfi_def_cfa_register 6
	.loc 2 89 36
#APP
# 89 "include/main/interrupt.h" 1
	sti
# 0 "" 2
	.loc 2 89 61
#NO_APP
	nop
	popq	%rbp
	.cfi_restore 6
	.cfi_def_cfa 7, 8
	ret
	.cfi_endproc
.LFE1:
	.size	intr_enable, .-intr_enable
	.type	intr_disable, @function
intr_disable:
.LFB2:
	.loc 2 91 35
	.cfi_startproc
	pushq	%rbp
	.cfi_def_cfa_offset 16
	.cfi_offset 6, -16
	movq	%rsp, %rbp
	.cfi_def_cfa_register 6
	.loc 2 91 37
#APP
# 91 "include/main/interrupt.h" 1
	cli
# 0 "" 2
	.loc 2 91 62
#NO_APP
	nop
	popq	%rbp
	.cfi_restore 6
	.cfi_def_cfa 7, 8
	ret
	.cfi_endproc
.LFE2:
	.size	intr_disable, .-intr_disable
	.type	intr_wait, @function
intr_wait:
.LFB3:
	.loc 2 98 1
	.cfi_startproc
	pushq	%rbp
	.cfi_def_cfa_offset 16
	.cfi_offset 6, -16
	movq	%rsp, %rbp
	.cfi_def_cfa_register 6
	.loc 2 105 5
#APP
# 105 "include/main/interrupt.h" 1
	sti; hlt
# 0 "" 2
	.loc 2 106 1
#NO_APP
	nop
	popq	%rbp
	.cfi_restore 6
	.cfi_def_cfa 7, 8
	ret
	.cfi_endproc
.LFE3:
	.size	intr_wait, .-intr_wait
	.type	equals, @function
equals:
.LFB4:
	.file 3 "include/util/debug.h"
	.loc 3 280 1
	.cfi_startproc
	pushq	%rbp
	.cfi_def_cfa_offset 16
	.cfi_offset 6, -16
	movq	%rsp, %rbp
	.cfi_def_cfa_register 6
	subq	$16, %rsp
	movq	%rdi, -8(%rbp)
	movq	%rsi, -16(%rbp)
	.loc 3 281 14
	movq	-8(%rbp), %rax
	cmpq	-16(%rbp), %rax
	sete	%al
	movzbl	%al, %eax
	.loc 3 282 1
	leave
	.cfi_restore 6
	.cfi_def_cfa 7, 8
	ret
	.cfi_endproc
.LFE4:
	.size	equals, .-equals
	.type	notequals, @function
notequals:
.LFB5:
	.loc 3 284 39
	.cfi_startproc
	pushq	%rbp
	.cfi_def_cfa_offset 16
	.cfi_offset 6, -16
	movq	%rsp, %rbp
	.cfi_def_cfa_register 6
	subq	$16, %rsp
	movq	%rdi, -8(%rbp)
	movq	%rsi, -16(%rbp)
	.loc 3 284 50
	movq	-8(%rbp), %rax
	cmpq	-16(%rbp), %rax
	setne	%al
	movzbl	%al, %eax
	.loc 3 284 56
	leave
	.cfi_restore 6
	.cfi_def_cfa 7, 8
	ret
	.cfi_endproc
.LFE5:
	.size	notequals, .-notequals
	.type	lessthan, @function
lessthan:
.LFB6:
	.loc 3 286 38
	.cfi_startproc
	pushq	%rbp
	.cfi_def_cfa_offset 16
	.cfi_offset 6, -16
	movq	%rsp, %rbp
	.cfi_def_cfa_register 6
	subq	$16, %rsp
	movq	%rdi, -8(%rbp)
	movq	%rsi, -16(%rbp)
	.loc 3 286 49
	movq	-8(%rbp), %rax
	cmpq	-16(%rbp), %rax
	setl	%al
	movzbl	%al, %eax
	.loc 3 286 54
	leave
	.cfi_restore 6
	.cfi_def_cfa 7, 8
	ret
	.cfi_endproc
.LFE6:
	.size	lessthan, .-lessthan
	.type	greaterthan, @function
greaterthan:
.LFB7:
	.loc 3 288 41
	.cfi_startproc
	pushq	%rbp
	.cfi_def_cfa_offset 16
	.cfi_offset 6, -16
	movq	%rsp, %rbp
	.cfi_def_cfa_register 6
	subq	$16, %rsp
	movq	%rdi, -8(%rbp)
	movq	%rsi, -16(%rbp)
	.loc 3 288 52
	movq	-8(%rbp), %rax
	cmpq	-16(%rbp), %rax
	setg	%al
	movzbl	%al, %eax
	.loc 3 288 57
	leave
	.cfi_restore 6
	.cfi_def_cfa 7, 8
	ret
	.cfi_endproc
.LFE7:
	.size	greaterthan, .-greaterthan
	.type	lessthaneq, @function
lessthaneq:
.LFB8:
	.loc 3 290 40
	.cfi_startproc
	pushq	%rbp
	.cfi_def_cfa_offset 16
	.cfi_offset 6, -16
	movq	%rsp, %rbp
	.cfi_def_cfa_register 6
	subq	$16, %rsp
	movq	%rdi, -8(%rbp)
	movq	%rsi, -16(%rbp)
	.loc 3 290 51
	movq	-8(%rbp), %rax
	cmpq	-16(%rbp), %rax
	setle	%al
	movzbl	%al, %eax
	.loc 3 290 57
	leave
	.cfi_restore 6
	.cfi_def_cfa 7, 8
	ret
	.cfi_endproc
.LFE8:
	.size	lessthaneq, .-lessthaneq
	.type	greaterthaneq, @function
greaterthaneq:
.LFB9:
	.loc 3 292 43
	.cfi_startproc
	pushq	%rbp
	.cfi_def_cfa_offset 16
	.cfi_offset 6, -16
	movq	%rsp, %rbp
	.cfi_def_cfa_register 6
	subq	$16, %rsp
	movq	%rdi, -8(%rbp)
	movq	%rsi, -16(%rbp)
	.loc 3 292 54
	movq	-8(%rbp), %rax
	cmpq	-16(%rbp), %rax
	setge	%al
	movzbl	%al, %eax
	.loc 3 292 60
	leave
	.cfi_restore 6
	.cfi_def_cfa 7, 8
	ret
	.cfi_endproc
.LFE9:
	.size	greaterthaneq, .-greaterthaneq
	.data
	.align 16
	.type	chardevs, @object
	.size	chardevs, 16
chardevs:
	.quad	chardevs
	.quad	chardevs
	.text
	.globl	chardev_init
	.type	chardev_init, @function
chardev_init:
.LFB10:
	.loc 1 10 1
	.cfi_startproc
	pushq	%rbp
	.cfi_def_cfa_offset 16
	.cfi_offset 6, -16
	movq	%rsp, %rbp
	.cfi_def_cfa_register 6
	.loc 1 11 5
	movabsq	$tty_init, %rax
	call	*%rax
.LVL0:
	.loc 1 12 5
	movabsq	$memdevs_init, %rax
	call	*%rax
.LVL1:
	.loc 1 13 1
	nop
	popq	%rbp
	.cfi_restore 6
	.cfi_def_cfa 7, 8
	ret
	.cfi_endproc
.LFE10:
	.size	chardev_init, .-chardev_init
	.globl	chardev_register
	.type	chardev_register, @function
chardev_register:
.LFB11:
	.loc 1 16 1
	.cfi_startproc
	pushq	%rbp
	.cfi_def_cfa_offset 16
	.cfi_offset 6, -16
	movq	%rsp, %rbp
	.cfi_def_cfa_register 6
	subq	$32, %rsp
	movq	%rdi, -24(%rbp)
	.loc 1 17 8
	cmpq	$0, -24(%rbp)
	je	.L20
	.loc 1 17 35 discriminator 1
	movq	-24(%rbp), %rax
	movl	(%rax), %eax
	.loc 1 17 14 discriminator 1
	testl	%eax, %eax
	je	.L20
	.loc 1 17 52 discriminator 2
	movq	-24(%rbp), %rax
	movq	8(%rax), %rax
	.loc 1 17 44 discriminator 2
	testq	%rax, %rax
	jne	.L21
.L20:
	.loc 1 19 16
	movq	$-1, %rax
	jmp	.L22
.L21:
.LBB2:
	.loc 1 21 5
	movabsq	$chardevs, %rax
	movq	(%rax), %rax
	subq	$16, %rax
	movq	%rax, -8(%rbp)
	movq	-8(%rbp), %rax
	movq	16(%rax), %rax
	subq	$16, %rax
	movq	%rax, -16(%rbp)
	jmp	.L23
.L25:
	.loc 1 23 16
	movq	-24(%rbp), %rax
	movl	(%rax), %edx
	.loc 1 23 29
	movq	-8(%rbp), %rax
	movl	(%rax), %eax
	.loc 1 23 12
	cmpl	%eax, %edx
	jne	.L24
	.loc 1 25 20
	movq	$-1, %rax
	jmp	.L22
.L24:
	.loc 1 21 5 discriminator 2
	movq	-16(%rbp), %rax
	movq	%rax, -8(%rbp)
	movq	-8(%rbp), %rax
	movq	16(%rax), %rax
	subq	$16, %rax
	movq	%rax, -16(%rbp)
.L23:
	.loc 1 21 5 is_stmt 0 discriminator 1
	movq	-8(%rbp), %rax
	leaq	16(%rax), %rdx
	movabsq	$chardevs, %rax
	cmpq	%rax, %rdx
	jne	.L25
.LBE2:
	.loc 1 28 5 is_stmt 1
	movq	-24(%rbp), %rax
	addq	$16, %rax
	movq	%rax, %rsi
	movabsq	$chardevs, %rax
	movq	%rax, %rdi
	movabsq	$list_insert_tail, %rax
	call	*%rax
.LVL2:
	.loc 1 29 12
	movl	$0, %eax
.L22:
	.loc 1 30 1
	leave
	.cfi_restore 6
	.cfi_def_cfa 7, 8
	ret
	.cfi_endproc
.LFE11:
	.size	chardev_register, .-chardev_register
	.section	.rodata
.LC0:
	.string	"NULL_DEVID != cd->cd_id"
.LC1:
	.string	"assertion failed: %s"
.LC2:
	.string	"drivers/chardev.c"
	.text
	.globl	chardev_lookup
	.type	chardev_lookup, @function
chardev_lookup:
.LFB12:
	.loc 1 33 1
	.cfi_startproc
	pushq	%rbp
	.cfi_def_cfa_offset 16
	.cfi_offset 6, -16
	movq	%rsp, %rbp
	.cfi_def_cfa_register 6
	subq	$32, %rsp
	movl	%edi, -20(%rbp)
.LBB3:
	.loc 1 34 5
	movabsq	$chardevs, %rax
	movq	(%rax), %rax
	subq	$16, %rax
	movq	%rax, -8(%rbp)
	movq	-8(%rbp), %rax
	movq	16(%rax), %rax
	subq	$16, %rax
	movq	%rax, -16(%rbp)
	jmp	.L27
.L31:
	.loc 1 36 9
	movq	-8(%rbp), %rax
	movl	(%rax), %eax
	testl	%eax, %eax
	jne	.L28
	.loc 1 36 9 is_stmt 0 discriminator 1
	movabsq	$.LC0, %r8
	movabsq	$.LC1, %rax
	movq	%rax, %rcx
	movabsq	$__func__.0, %rax
	movq	%rax, %rdx
	movl	$36, %esi
	movabsq	$.LC2, %rax
	movq	%rax, %rdi
	movl	$0, %eax
	movabsq	$dbg_panic, %r9
	call	*%r9
.LVL3:
.L28:
	.loc 1 37 21 is_stmt 1
	movq	-8(%rbp), %rax
	movl	(%rax), %eax
	.loc 1 37 12
	cmpl	%eax, -20(%rbp)
	jne	.L29
	.loc 1 39 20
	movq	-8(%rbp), %rax
	jmp	.L30
.L29:
	.loc 1 34 5 discriminator 2
	movq	-16(%rbp), %rax
	movq	%rax, -8(%rbp)
	movq	-8(%rbp), %rax
	movq	16(%rax), %rax
	subq	$16, %rax
	movq	%rax, -16(%rbp)
.L27:
	.loc 1 34 5 is_stmt 0 discriminator 1
	movq	-8(%rbp), %rax
	leaq	16(%rax), %rdx
	movabsq	$chardevs, %rax
	cmpq	%rax, %rdx
	jne	.L31
.LBE3:
	.loc 1 42 12 is_stmt 1
	movl	$0, %eax
.L30:
	.loc 1 43 1
	leave
	.cfi_restore 6
	.cfi_def_cfa 7, 8
	ret
	.cfi_endproc
.LFE12:
	.size	chardev_lookup, .-chardev_lookup
	.section	.rodata
	.align 8
	.type	__func__.0, @object
	.size	__func__.0, 15
__func__.0:
	.string	"chardev_lookup"
	.text
.Letext0:
	.file 4 "include/types.h"
	.file 5 "include/util/list.h"
	.file 6 "include/drivers/chardev.h"
	.file 7 "include/drivers/memdevs.h"
	.file 8 "include/drivers/tty/tty.h"
	.section	.note.GNU-stack,"",@progbits
