	.file	"cmos.c"
	.text
.Ltext0:
	.file 1 "drivers/cmos.c"
	.type	outb, @function
outb:
.LFB0:
	.file 2 "include/main/io.h"
	.loc 2 7 1
	.cfi_startproc
	pushq	%rbp
	.cfi_def_cfa_offset 16
	.cfi_offset 6, -16
	movq	%rsp, %rbp
	.cfi_def_cfa_register 6
	subq	$8, %rsp
	movl	%edi, %edx
	movl	%esi, %eax
	movw	%dx, -4(%rbp)
	movb	%al, -8(%rbp)
	.loc 2 8 5
	movzbl	-8(%rbp), %eax
	movzwl	-4(%rbp), %edx
#APP
# 8 "include/main/io.h" 1
	outb %al,%dx
# 0 "" 2
	.loc 2 9 1
#NO_APP
	nop
	leave
	.cfi_restore 6
	.cfi_def_cfa 7, 8
	ret
	.cfi_endproc
.LFE0:
	.size	outb, .-outb
	.type	inb, @function
inb:
.LFB1:
	.loc 2 12 1
	.cfi_startproc
	pushq	%rbp
	.cfi_def_cfa_offset 16
	.cfi_offset 6, -16
	movq	%rsp, %rbp
	.cfi_def_cfa_register 6
	subq	$24, %rsp
	movl	%edi, %eax
	movw	%ax, -20(%rbp)
	.loc 2 14 5
	movzwl	-20(%rbp), %eax
	movl	%eax, %edx
#APP
# 14 "include/main/io.h" 1
	inb %dx,%al
# 0 "" 2
#NO_APP
	movb	%al, -1(%rbp)
	.loc 2 17 12
	movzbl	-1(%rbp), %eax
	.loc 2 18 1
	leave
	.cfi_restore 6
	.cfi_def_cfa 7, 8
	ret
	.cfi_endproc
.LFE1:
	.size	inb, .-inb
	.type	outw, @function
outw:
.LFB2:
	.loc 2 21 1
	.cfi_startproc
	pushq	%rbp
	.cfi_def_cfa_offset 16
	.cfi_offset 6, -16
	movq	%rsp, %rbp
	.cfi_def_cfa_register 6
	subq	$8, %rsp
	movl	%edi, %edx
	movl	%esi, %eax
	movw	%dx, -4(%rbp)
	movw	%ax, -8(%rbp)
	.loc 2 22 5
	movzwl	-8(%rbp), %eax
	movzwl	-4(%rbp), %edx
#APP
# 22 "include/main/io.h" 1
	outw %ax,%dx
# 0 "" 2
	.loc 2 23 1
#NO_APP
	nop
	leave
	.cfi_restore 6
	.cfi_def_cfa 7, 8
	ret
	.cfi_endproc
.LFE2:
	.size	outw, .-outw
	.type	inw, @function
inw:
.LFB3:
	.loc 2 26 1
	.cfi_startproc
	pushq	%rbp
	.cfi_def_cfa_offset 16
	.cfi_offset 6, -16
	movq	%rsp, %rbp
	.cfi_def_cfa_register 6
	subq	$24, %rsp
	movl	%edi, %eax
	movw	%ax, -20(%rbp)
	.loc 2 28 5
	movzwl	-20(%rbp), %eax
	movl	%eax, %edx
#APP
# 28 "include/main/io.h" 1
	inw %dx,%ax
# 0 "" 2
#NO_APP
	movw	%ax, -2(%rbp)
	.loc 2 31 12
	movzwl	-2(%rbp), %eax
	.loc 2 32 1
	leave
	.cfi_restore 6
	.cfi_def_cfa 7, 8
	ret
	.cfi_endproc
.LFE3:
	.size	inw, .-inw
	.type	outl, @function
outl:
.LFB4:
	.loc 2 35 1
	.cfi_startproc
	pushq	%rbp
	.cfi_def_cfa_offset 16
	.cfi_offset 6, -16
	movq	%rsp, %rbp
	.cfi_def_cfa_register 6
	subq	$8, %rsp
	movl	%edi, %eax
	movl	%esi, -8(%rbp)
	movw	%ax, -4(%rbp)
	.loc 2 36 5
	movl	-8(%rbp), %eax
	movzwl	-4(%rbp), %edx
#APP
# 36 "include/main/io.h" 1
	outl %eax,%dx
# 0 "" 2
	.loc 2 37 1
#NO_APP
	nop
	leave
	.cfi_restore 6
	.cfi_def_cfa 7, 8
	ret
	.cfi_endproc
.LFE4:
	.size	outl, .-outl
	.type	inl, @function
inl:
.LFB5:
	.loc 2 40 1
	.cfi_startproc
	pushq	%rbp
	.cfi_def_cfa_offset 16
	.cfi_offset 6, -16
	movq	%rsp, %rbp
	.cfi_def_cfa_register 6
	subq	$24, %rsp
	movl	%edi, %eax
	movw	%ax, -20(%rbp)
	.loc 2 42 5
	movzwl	-20(%rbp), %eax
	movl	%eax, %edx
#APP
# 42 "include/main/io.h" 1
	inl %dx,%eax
# 0 "" 2
#NO_APP
	movl	%eax, -4(%rbp)
	.loc 2 45 12
	movl	-4(%rbp), %eax
	.loc 2 46 1
	leave
	.cfi_restore 6
	.cfi_def_cfa 7, 8
	ret
	.cfi_endproc
.LFE5:
	.size	inl, .-inl
	.globl	cmos_update_flag_set
	.type	cmos_update_flag_set, @function
cmos_update_flag_set:
.LFB6:
	.loc 1 4 1
	.cfi_startproc
	pushq	%rbp
	.cfi_def_cfa_offset 16
	.cfi_offset 6, -16
	movq	%rsp, %rbp
	.cfi_def_cfa_register 6
	subq	$16, %rsp
	movw	$112, -6(%rbp)
	movb	$10, -7(%rbp)
.LBB10:
.LBB11:
	.loc 2 8 5
	movzbl	-7(%rbp), %eax
	movzwl	-6(%rbp), %edx
#APP
# 8 "include/main/io.h" 1
	outb %al,%dx
# 0 "" 2
	.loc 2 9 1
#NO_APP
	nop
	movw	$113, -2(%rbp)
.LBE11:
.LBE10:
.LBB12:
.LBB13:
	.loc 2 14 5
	movzwl	-2(%rbp), %eax
	movl	%eax, %edx
#APP
# 14 "include/main/io.h" 1
	inb %dx,%al
# 0 "" 2
#NO_APP
	movb	%al, -3(%rbp)
	.loc 2 17 12
	movzbl	-3(%rbp), %eax
.LBE13:
.LBE12:
	.loc 1 6 28
	movzbl	%al, %eax
	andl	$128, %eax
	.loc 1 7 1
	leave
	.cfi_restore 6
	.cfi_def_cfa 7, 8
	ret
	.cfi_endproc
.LFE6:
	.size	cmos_update_flag_set, .-cmos_update_flag_set
	.globl	cmos_read_register
	.type	cmos_read_register, @function
cmos_read_register:
.LFB7:
	.loc 1 10 1
	.cfi_startproc
	pushq	%rbp
	.cfi_def_cfa_offset 16
	.cfi_offset 6, -16
	movq	%rsp, %rbp
	.cfi_def_cfa_register 6
	subq	$24, %rsp
	movl	%edi, -20(%rbp)
	.loc 1 11 5
	movl	-20(%rbp), %eax
	movzbl	%al, %eax
	movw	$112, -6(%rbp)
	movb	%al, -7(%rbp)
.LBB14:
.LBB15:
	.loc 2 8 5
	movzbl	-7(%rbp), %eax
	movzwl	-6(%rbp), %edx
#APP
# 8 "include/main/io.h" 1
	outb %al,%dx
# 0 "" 2
	.loc 2 9 1
#NO_APP
	nop
	movw	$113, -2(%rbp)
.LBE15:
.LBE14:
.LBB16:
.LBB17:
	.loc 2 14 5
	movzwl	-2(%rbp), %eax
	movl	%eax, %edx
#APP
# 14 "include/main/io.h" 1
	inb %dx,%al
# 0 "" 2
#NO_APP
	movb	%al, -3(%rbp)
	.loc 2 17 12
	movzbl	-3(%rbp), %eax
.LBE17:
.LBE16:
	.loc 1 13 1
	leave
	.cfi_restore 6
	.cfi_def_cfa 7, 8
	ret
	.cfi_endproc
.LFE7:
	.size	cmos_read_register, .-cmos_read_register
	.globl	rtc_time_match
	.type	rtc_time_match, @function
rtc_time_match:
.LFB8:
	.loc 1 16 1
	.cfi_startproc
	pushq	%rbp
	.cfi_def_cfa_offset 16
	.cfi_offset 6, -16
	movq	%rsp, %rbp
	.cfi_def_cfa_register 6
	subq	$32, %rsp
	movq	%rsi, %rax
	movq	%rdi, %r8
	movq	%r8, %rsi
	movq	%r9, %rdi
	movq	%rax, %rdi
	movq	%rsi, -16(%rbp)
	movq	%rdi, -8(%rbp)
	movq	%rdx, -32(%rbp)
	movq	%rcx, -24(%rbp)
	.loc 1 17 14
	movzbl	-16(%rbp), %edx
	.loc 1 17 26
	movzbl	-32(%rbp), %eax
	.loc 1 19 31
	cmpb	%al, %dl
	jne	.L17
	.loc 1 17 40
	movzbl	-15(%rbp), %edx
	.loc 1 17 52
	movzbl	-31(%rbp), %eax
	.loc 1 17 35
	cmpb	%al, %dl
	jne	.L17
	.loc 1 18 14 discriminator 1
	movzbl	-14(%rbp), %edx
	.loc 1 18 24 discriminator 1
	movzbl	-30(%rbp), %eax
	.loc 1 17 61 discriminator 1
	cmpb	%al, %dl
	jne	.L17
	.loc 1 18 36
	movzbl	-13(%rbp), %edx
	.loc 1 18 45
	movzbl	-29(%rbp), %eax
	.loc 1 18 31
	cmpb	%al, %dl
	jne	.L17
	.loc 1 18 56 discriminator 1
	movzbl	-12(%rbp), %edx
	.loc 1 18 67 discriminator 1
	movzbl	-28(%rbp), %eax
	.loc 1 18 51 discriminator 1
	cmpb	%al, %dl
	jne	.L17
	.loc 1 19 14 discriminator 2
	movl	-8(%rbp), %edx
	.loc 1 19 24 discriminator 2
	movl	-24(%rbp), %eax
	.loc 1 18 75 discriminator 2
	cmpl	%eax, %edx
	jne	.L17
	.loc 1 19 36 discriminator 3
	movl	-4(%rbp), %edx
	.loc 1 19 51 discriminator 3
	movl	-20(%rbp), %eax
	.loc 1 19 31 discriminator 3
	cmpl	%eax, %edx
	jne	.L17
	.loc 1 19 31 is_stmt 0 discriminator 2
	movl	$1, %eax
	jmp	.L19
.L17:
	.loc 1 19 31 discriminator 1
	movl	$0, %eax
.L19:
	.loc 1 20 1 is_stmt 1 discriminator 6
	leave
	.cfi_restore 6
	.cfi_def_cfa 7, 8
	ret
	.cfi_endproc
.LFE8:
	.size	rtc_time_match, .-rtc_time_match
	.globl	__get_rtc_time
	.type	__get_rtc_time, @function
__get_rtc_time:
.LFB9:
	.loc 1 23 1
	.cfi_startproc
	pushq	%rbp
	.cfi_def_cfa_offset 16
	.cfi_offset 6, -16
	movq	%rsp, %rbp
	.cfi_def_cfa_register 6
	subq	$16, %rsp
	.loc 1 26 11
	nop
.L21:
	.loc 1 26 12 discriminator 1
	movl	$0, %eax
	movabsq	$cmos_update_flag_set, %rdx
	call	*%rdx
.LVL0:
	testl	%eax, %eax
	jne	.L21
	.loc 1 29 17
	movl	$0, %edi
	movabsq	$cmos_read_register, %rax
	call	*%rax
.LVL1:
	.loc 1 29 15
	movb	%al, -16(%rbp)
	.loc 1 30 17
	movl	$2, %edi
	movabsq	$cmos_read_register, %rax
	call	*%rax
.LVL2:
	.loc 1 30 15
	movb	%al, -15(%rbp)
	.loc 1 31 15
	movl	$4, %edi
	movabsq	$cmos_read_register, %rax
	call	*%rax
.LVL3:
	.loc 1 31 13
	movb	%al, -14(%rbp)
	.loc 1 32 14
	movl	$7, %edi
	movabsq	$cmos_read_register, %rax
	call	*%rax
.LVL4:
	.loc 1 32 12
	movb	%al, -13(%rbp)
	.loc 1 33 16
	movl	$8, %edi
	movabsq	$cmos_read_register, %rax
	call	*%rax
.LVL5:
	.loc 1 33 14
	movb	%al, -12(%rbp)
	.loc 1 34 15
	movl	$9, %edi
	movabsq	$cmos_read_register, %rax
	call	*%rax
.LVL6:
	movzbl	%al, %eax
	.loc 1 34 13
	movl	%eax, -8(%rbp)
	.loc 1 35 20
	movl	$50, %edi
	movabsq	$cmos_read_register, %rax
	call	*%rax
.LVL7:
	movzbl	%al, %eax
	.loc 1 35 18
	movl	%eax, -4(%rbp)
	.loc 1 37 12
	movq	-16(%rbp), %rax
	movq	-8(%rbp), %rdx
	.loc 1 38 1
	leave
	.cfi_restore 6
	.cfi_def_cfa 7, 8
	ret
	.cfi_endproc
.LFE9:
	.size	__get_rtc_time, .-__get_rtc_time
	.globl	rtc_get_time
	.type	rtc_get_time, @function
rtc_get_time:
.LFB10:
	.loc 1 43 1
	.cfi_startproc
	pushq	%rbp
	.cfi_def_cfa_offset 16
	.cfi_offset 6, -16
	movq	%rsp, %rbp
	.cfi_def_cfa_register 6
	subq	$48, %rsp
.L24:
	.loc 1 50 16 discriminator 1
	movl	$0, %eax
	movabsq	$__get_rtc_time, %rdx
	call	*%rdx
.LVL8:
	movq	%rax, -32(%rbp)
	movq	%rdx, -24(%rbp)
	.loc 1 51 16 discriminator 1
	movl	$0, %eax
	movabsq	$__get_rtc_time, %rdx
	call	*%rdx
.LVL9:
	movq	%rax, -48(%rbp)
	movq	%rdx, -40(%rbp)
	.loc 1 52 15 discriminator 1
	movq	-48(%rbp), %rax
	movq	-40(%rbp), %rdx
	movq	-32(%rbp), %rdi
	movq	-24(%rbp), %rsi
	movq	%rdx, %rcx
	movq	%rax, %rdx
	movabsq	$rtc_time_match, %rax
	call	*%rax
.LVL10:
	.loc 1 52 14 discriminator 1
	testl	%eax, %eax
	je	.L24
	.loc 1 54 35
	movl	$11, %edi
	movabsq	$cmos_read_register, %rax
	call	*%rax
.LVL11:
	movb	%al, -1(%rbp)
	.loc 1 57 25
	movzbl	-1(%rbp), %eax
	andl	$4, %eax
	.loc 1 57 8
	testl	%eax, %eax
	jne	.L25
	.loc 1 59 28
	movzbl	-32(%rbp), %eax
	.loc 1 59 36
	andl	$15, %eax
	movl	%eax, %ecx
	.loc 1 59 52
	movzbl	-32(%rbp), %eax
	.loc 1 59 44
	shrb	$4, %al
	movl	%eax, %edx
	movl	%edx, %eax
	sall	$2, %eax
	addl	%edx, %eax
	addl	%eax, %eax
	addl	%ecx, %eax
	.loc 1 59 21
	movb	%al, -32(%rbp)
	.loc 1 60 28
	movzbl	-31(%rbp), %eax
	.loc 1 60 36
	andl	$15, %eax
	movl	%eax, %ecx
	.loc 1 60 52
	movzbl	-31(%rbp), %eax
	.loc 1 60 44
	shrb	$4, %al
	movl	%eax, %edx
	movl	%edx, %eax
	sall	$2, %eax
	addl	%edx, %eax
	addl	%eax, %eax
	addl	%ecx, %eax
	.loc 1 60 21
	movb	%al, -31(%rbp)
	.loc 1 61 27
	movzbl	-30(%rbp), %eax
	.loc 1 61 33
	andl	$15, %eax
	movl	%eax, %ecx
	.loc 1 61 50
	movzbl	-30(%rbp), %eax
	.loc 1 61 56
	movzbl	%al, %eax
	andl	$112, %eax
	.loc 1 61 64
	leal	15(%rax), %edx
	testl	%eax, %eax
	cmovs	%edx, %eax
	sarl	$4, %eax
	.loc 1 61 41
	movl	%eax, %edx
	movl	%edx, %eax
	sall	$2, %eax
	addl	%edx, %eax
	addl	%eax, %eax
	addl	%ecx, %eax
	movl	%eax, %edx
	.loc 1 62 26
	movzbl	-30(%rbp), %eax
	.loc 1 62 32
	andl	$-128, %eax
	.loc 1 61 77
	orl	%edx, %eax
	.loc 1 61 19
	movb	%al, -30(%rbp)
	.loc 1 63 25
	movzbl	-29(%rbp), %eax
	.loc 1 63 30
	andl	$15, %eax
	movl	%eax, %ecx
	.loc 1 63 46
	movzbl	-29(%rbp), %eax
	.loc 1 63 38
	shrb	$4, %al
	movl	%eax, %edx
	movl	%edx, %eax
	sall	$2, %eax
	addl	%edx, %eax
	addl	%eax, %eax
	addl	%ecx, %eax
	.loc 1 63 18
	movb	%al, -29(%rbp)
	.loc 1 64 27
	movzbl	-28(%rbp), %eax
	.loc 1 64 34
	andl	$15, %eax
	movl	%eax, %ecx
	.loc 1 64 50
	movzbl	-28(%rbp), %eax
	.loc 1 64 42
	shrb	$4, %al
	movl	%eax, %edx
	movl	%edx, %eax
	sall	$2, %eax
	addl	%edx, %eax
	addl	%eax, %eax
	addl	%ecx, %eax
	.loc 1 64 20
	movb	%al, -28(%rbp)
	.loc 1 65 26
	movl	-24(%rbp), %eax
	.loc 1 65 32
	andl	$15, %eax
	movl	%eax, %ecx
	.loc 1 65 48
	movl	-24(%rbp), %eax
	.loc 1 65 54
	shrl	$4, %eax
	movl	%eax, %edx
	.loc 1 65 60
	movl	%edx, %eax
	sall	$2, %eax
	addl	%edx, %eax
	addl	%eax, %eax
	.loc 1 65 40
	addl	%ecx, %eax
	.loc 1 65 19
	movl	%eax, -24(%rbp)
	.loc 1 66 31
	movl	-20(%rbp), %eax
	.loc 1 66 42
	andl	$15, %eax
	movl	%eax, %ecx
	.loc 1 66 58
	movl	-20(%rbp), %eax
	.loc 1 66 69
	shrl	$4, %eax
	movl	%eax, %edx
	.loc 1 66 75
	movl	%edx, %eax
	sall	$2, %eax
	addl	%edx, %eax
	addl	%eax, %eax
	.loc 1 66 50
	addl	%ecx, %eax
	.loc 1 66 24
	movl	%eax, -20(%rbp)
.L25:
	.loc 1 70 25
	movzbl	-1(%rbp), %eax
	andl	$2, %eax
	.loc 1 70 8
	testl	%eax, %eax
	jne	.L26
	.loc 1 70 41 discriminator 1
	movzbl	-30(%rbp), %eax
	.loc 1 70 33 discriminator 1
	testb	%al, %al
	jns	.L26
	.loc 1 72 27
	movzbl	-30(%rbp), %eax
	.loc 1 72 33
	movzbl	%al, %eax
	andl	$127, %eax
	.loc 1 72 41
	leal	12(%rax), %ecx
	.loc 1 72 47
	movslq	%ecx, %rax
	imulq	$715827883, %rax, %rax
	shrq	$32, %rax
	movl	%eax, %edx
	sarl	$2, %edx
	movl	%ecx, %eax
	sarl	$31, %eax
	subl	%eax, %edx
	movl	%edx, %eax
	addl	%eax, %eax
	addl	%edx, %eax
	sall	$3, %eax
	subl	%eax, %ecx
	movl	%ecx, %edx
	.loc 1 72 19
	movl	%edx, %eax
	movb	%al, -30(%rbp)
.L26:
	.loc 1 75 9
	movl	-24(%rbp), %edx
	.loc 1 75 23
	movl	-20(%rbp), %eax
	.loc 1 75 34
	imull	$100, %eax, %eax
	.loc 1 75 15
	addl	%edx, %eax
	movl	%eax, -24(%rbp)
	.loc 1 77 12
	movq	-32(%rbp), %rax
	movq	-24(%rbp), %rdx
	.loc 1 78 1
	leave
	.cfi_restore 6
	.cfi_def_cfa 7, 8
	ret
	.cfi_endproc
.LFE10:
	.size	rtc_get_time, .-rtc_get_time
.Letext0:
	.file 3 "include/types.h"
	.file 4 "include/drivers/cmos.h"
	.section	.note.GNU-stack,"",@progbits
