	.file	"pcie.c"
	.text
.Ltext0:
	.file 1 "drivers/pcie.c"
	.type	intr_enabled, @function
intr_enabled:
.LFB0:
	.file 2 "include/main/interrupt.h"
	.loc 2 82 1
	.cfi_startproc
	pushq	%rbp
	.cfi_def_cfa_offset 16
	.cfi_offset 6, -16
	movq	%rsp, %rbp
	.cfi_def_cfa_register 6
	subq	$16, %rsp
	.loc 2 84 5
#APP
# 84 "include/main/interrupt.h" 1
	pushf; pop %rax; and $0x200, %rax;
# 0 "" 2
#NO_APP
	movq	%rax, -8(%rbp)
	.loc 2 86 12
	movq	-8(%rbp), %rax
	.loc 2 87 1
	leave
	.cfi_restore 6
	.cfi_def_cfa 7, 8
	ret
	.cfi_endproc
.LFE0:
	.size	intr_enabled, .-intr_enabled
	.type	intr_enable, @function
intr_enable:
.LFB1:
	.loc 2 89 34
	.cfi_startproc
	pushq	%rbp
	.cfi_def_cfa_offset 16
	.cfi_offset 6, -16
	movq	%rsp, %rbp
	.cfi_def_cfa_register 6
	.loc 2 89 36
#APP
# 89 "include/main/interrupt.h" 1
	sti
# 0 "" 2
	.loc 2 89 61
#NO_APP
	nop
	popq	%rbp
	.cfi_restore 6
	.cfi_def_cfa 7, 8
	ret
	.cfi_endproc
.LFE1:
	.size	intr_enable, .-intr_enable
	.type	intr_disable, @function
intr_disable:
.LFB2:
	.loc 2 91 35
	.cfi_startproc
	pushq	%rbp
	.cfi_def_cfa_offset 16
	.cfi_offset 6, -16
	movq	%rsp, %rbp
	.cfi_def_cfa_register 6
	.loc 2 91 37
#APP
# 91 "include/main/interrupt.h" 1
	cli
# 0 "" 2
	.loc 2 91 62
#NO_APP
	nop
	popq	%rbp
	.cfi_restore 6
	.cfi_def_cfa 7, 8
	ret
	.cfi_endproc
.LFE2:
	.size	intr_disable, .-intr_disable
	.type	intr_wait, @function
intr_wait:
.LFB3:
	.loc 2 98 1
	.cfi_startproc
	pushq	%rbp
	.cfi_def_cfa_offset 16
	.cfi_offset 6, -16
	movq	%rsp, %rbp
	.cfi_def_cfa_register 6
	.loc 2 105 5
#APP
# 105 "include/main/interrupt.h" 1
	sti; hlt
# 0 "" 2
	.loc 2 106 1
#NO_APP
	nop
	popq	%rbp
	.cfi_restore 6
	.cfi_def_cfa 7, 8
	ret
	.cfi_endproc
.LFE3:
	.size	intr_wait, .-intr_wait
	.type	equals, @function
equals:
.LFB4:
	.file 3 "include/util/debug.h"
	.loc 3 280 1
	.cfi_startproc
	pushq	%rbp
	.cfi_def_cfa_offset 16
	.cfi_offset 6, -16
	movq	%rsp, %rbp
	.cfi_def_cfa_register 6
	subq	$16, %rsp
	movq	%rdi, -8(%rbp)
	movq	%rsi, -16(%rbp)
	.loc 3 281 14
	movq	-8(%rbp), %rax
	cmpq	-16(%rbp), %rax
	sete	%al
	movzbl	%al, %eax
	.loc 3 282 1
	leave
	.cfi_restore 6
	.cfi_def_cfa 7, 8
	ret
	.cfi_endproc
.LFE4:
	.size	equals, .-equals
	.type	notequals, @function
notequals:
.LFB5:
	.loc 3 284 39
	.cfi_startproc
	pushq	%rbp
	.cfi_def_cfa_offset 16
	.cfi_offset 6, -16
	movq	%rsp, %rbp
	.cfi_def_cfa_register 6
	subq	$16, %rsp
	movq	%rdi, -8(%rbp)
	movq	%rsi, -16(%rbp)
	.loc 3 284 50
	movq	-8(%rbp), %rax
	cmpq	-16(%rbp), %rax
	setne	%al
	movzbl	%al, %eax
	.loc 3 284 56
	leave
	.cfi_restore 6
	.cfi_def_cfa 7, 8
	ret
	.cfi_endproc
.LFE5:
	.size	notequals, .-notequals
	.type	lessthan, @function
lessthan:
.LFB6:
	.loc 3 286 38
	.cfi_startproc
	pushq	%rbp
	.cfi_def_cfa_offset 16
	.cfi_offset 6, -16
	movq	%rsp, %rbp
	.cfi_def_cfa_register 6
	subq	$16, %rsp
	movq	%rdi, -8(%rbp)
	movq	%rsi, -16(%rbp)
	.loc 3 286 49
	movq	-8(%rbp), %rax
	cmpq	-16(%rbp), %rax
	setl	%al
	movzbl	%al, %eax
	.loc 3 286 54
	leave
	.cfi_restore 6
	.cfi_def_cfa 7, 8
	ret
	.cfi_endproc
.LFE6:
	.size	lessthan, .-lessthan
	.type	greaterthan, @function
greaterthan:
.LFB7:
	.loc 3 288 41
	.cfi_startproc
	pushq	%rbp
	.cfi_def_cfa_offset 16
	.cfi_offset 6, -16
	movq	%rsp, %rbp
	.cfi_def_cfa_register 6
	subq	$16, %rsp
	movq	%rdi, -8(%rbp)
	movq	%rsi, -16(%rbp)
	.loc 3 288 52
	movq	-8(%rbp), %rax
	cmpq	-16(%rbp), %rax
	setg	%al
	movzbl	%al, %eax
	.loc 3 288 57
	leave
	.cfi_restore 6
	.cfi_def_cfa 7, 8
	ret
	.cfi_endproc
.LFE7:
	.size	greaterthan, .-greaterthan
	.type	lessthaneq, @function
lessthaneq:
.LFB8:
	.loc 3 290 40
	.cfi_startproc
	pushq	%rbp
	.cfi_def_cfa_offset 16
	.cfi_offset 6, -16
	movq	%rsp, %rbp
	.cfi_def_cfa_register 6
	subq	$16, %rsp
	movq	%rdi, -8(%rbp)
	movq	%rsi, -16(%rbp)
	.loc 3 290 51
	movq	-8(%rbp), %rax
	cmpq	-16(%rbp), %rax
	setle	%al
	movzbl	%al, %eax
	.loc 3 290 57
	leave
	.cfi_restore 6
	.cfi_def_cfa 7, 8
	ret
	.cfi_endproc
.LFE8:
	.size	lessthaneq, .-lessthaneq
	.type	greaterthaneq, @function
greaterthaneq:
.LFB9:
	.loc 3 292 43
	.cfi_startproc
	pushq	%rbp
	.cfi_def_cfa_offset 16
	.cfi_offset 6, -16
	movq	%rsp, %rbp
	.cfi_def_cfa_register 6
	subq	$16, %rsp
	movq	%rdi, -8(%rbp)
	movq	%rsi, -16(%rbp)
	.loc 3 292 54
	movq	-8(%rbp), %rax
	cmpq	-16(%rbp), %rax
	setge	%al
	movzbl	%al, %eax
	.loc 3 292 60
	leave
	.cfi_restore 6
	.cfi_def_cfa 7, 8
	ret
	.cfi_endproc
.LFE9:
	.size	greaterthaneq, .-greaterthaneq
	.local	pcie_base_addr
	.comm	pcie_base_addr,8,8
	.local	pcie_table
	.comm	pcie_table,8,8
	.local	pcie_wrapper_list
	.comm	pcie_wrapper_list,16,16
	.section	.rodata
.LC0:
	.string	"MCFG"
.LC1:
	.string	"table"
.LC2:
	.string	"assertion failed: %s"
.LC3:
	.string	"drivers/pcie.c"
	.text
	.globl	pci_init
	.type	pci_init, @function
pci_init:
.LFB10:
	.loc 1 24 1
	.cfi_startproc
	pushq	%rbp
	.cfi_def_cfa_offset 16
	.cfi_offset 6, -16
	movq	%rsp, %rbp
	.cfi_def_cfa_register 6
	pushq	%r13
	pushq	%r12
	pushq	%rbx
	subq	$56, %rsp
	.cfi_offset 13, -24
	.cfi_offset 12, -32
	.cfi_offset 3, -40
	.loc 1 26 30
	movabsq	$.LC0, %rax
	.loc 1 26 19
	movl	(%rax), %eax
	movl	$0, %esi
	movl	%eax, %edi
	movabsq	$acpi_table, %rax
	call	*%rax
.LVL0:
	movq	%rax, -56(%rbp)
	.loc 1 27 5
	cmpq	$0, -56(%rbp)
	jne	.L19
	.loc 1 27 5 is_stmt 0 discriminator 1
	movabsq	$.LC1, %r8
	movabsq	$.LC2, %rax
	movq	%rax, %rcx
	movabsq	$__func__.0, %rax
	movq	%rax, %rdx
	movl	$27, %esi
	movabsq	$.LC3, %rax
	movq	%rax, %rdi
	movl	$0, %eax
	movabsq	$dbg_panic, %r9
	call	*%r9
.LVL1:
.L19:
	.loc 1 28 37 is_stmt 1
	movq	-56(%rbp), %rax
	.loc 1 28 54
	addq	$44, %rax
	.loc 1 28 22
	movq	(%rax), %rax
	.loc 1 28 60
	movabsq	$-131941395333120, %rdx
	addq	%rax, %rdx
	.loc 1 28 20
	movabsq	$pcie_base_addr, %rax
	movq	%rdx, (%rax)
	.loc 1 29 18
	movabsq	$pcie_base_addr, %rax
	movq	(%rax), %rax
	movq	%rax, %rdx
	.loc 1 29 16
	movabsq	$pcie_table, %rax
	movq	%rdx, (%rax)
	.loc 1 30 5
	movabsq	$pcie_base_addr, %rax
	movq	(%rax), %rax
	leaq	1073741824(%rax), %r13
	movabsq	$pcie_base_addr, %rax
	movq	(%rax), %rbx
	movabsq	$pcie_base_addr, %rax
	movq	(%rax), %rax
	movabsq	$131941395333120, %rdx
	leaq	(%rax,%rdx), %r12
	movl	$0, %eax
	movabsq	$pt_get, %rdx
	call	*%rdx
.LVL2:
	movl	$3, %r9d
	movl	$3, %r8d
	movq	%r13, %rcx
	movq	%rbx, %rdx
	movq	%r12, %rsi
	movq	%rax, %rdi
	movabsq	$pt_map_range, %rax
	call	*%rax
.LVL3:
	.loc 1 34 5
	movabsq	$pcie_wrapper_list, %rax
	movq	%rax, %rdi
	movabsq	$list_init, %rax
	call	*%rax
.LVL4:
.LBB2:
	.loc 1 35 19
	movl	$0, -36(%rbp)
	.loc 1 35 5
	jmp	.L20
.L30:
.LBB3:
	.loc 1 37 23
	movl	$0, -40(%rbp)
	.loc 1 37 9
	jmp	.L21
.L29:
.LBB4:
	.loc 1 40 18
	movabsq	$pcie_table, %rax
	movq	(%rax), %rax
	.loc 1 40 52
	movl	-40(%rbp), %edx
	movl	-36(%rbp), %ecx
	salq	$5, %rcx
	addq	%rcx, %rdx
	salq	$15, %rdx
	addq	%rdx, %rax
	addq	$14, %rax
	movzbl	(%rax), %eax
	.loc 1 42 21
	testb	%al, %al
	jns	.L22
	.loc 1 42 21 is_stmt 0 discriminator 1
	movl	$32, %eax
	jmp	.L23
.L22:
	.loc 1 42 21 discriminator 2
	movl	$1, %eax
.L23:
	.loc 1 39 26 is_stmt 1
	movl	%eax, -60(%rbp)
.LBB5:
	.loc 1 43 27
	movl	$0, -44(%rbp)
	.loc 1 43 13
	jmp	.L24
.L28:
.LBB6:
	.loc 1 45 38
	movabsq	$pcie_table, %rax
	movq	(%rax), %rax
	.loc 1 45 32
	movl	-44(%rbp), %edx
	movl	-36(%rbp), %ecx
	movq	%rcx, %rsi
	salq	$5, %rsi
	movl	-40(%rbp), %ecx
	addq	%rsi, %rcx
	salq	$3, %rcx
	addq	%rcx, %rdx
	salq	$12, %rdx
	addq	%rdx, %rax
	movq	%rax, -72(%rbp)
	.loc 1 46 35
	movq	-72(%rbp), %rax
	movzwl	(%rax), %eax
	.loc 1 46 20
	testw	%ax, %ax
	je	.L31
	.loc 1 47 34 discriminator 2
	movq	-72(%rbp), %rax
	movzwl	(%rax), %eax
	.loc 1 46 46 discriminator 2
	cmpw	$-1, %ax
	je	.L31
	.loc 1 50 21
	movl	$32, %edi
	movabsq	$kmalloc, %rax
	call	*%rax
.LVL5:
	movq	%rax, -80(%rbp)
	.loc 1 51 30
	movq	-80(%rbp), %rax
	movq	-72(%rbp), %rdx
	movq	%rdx, 8(%rax)
	.loc 1 52 47
	movq	-72(%rbp), %rax
	movzbl	11(%rax), %edx
	.loc 1 52 32
	movq	-80(%rbp), %rax
	movb	%dl, (%rax)
	.loc 1 53 50
	movq	-72(%rbp), %rax
	movzbl	10(%rax), %edx
	.loc 1 53 35
	movq	-80(%rbp), %rax
	movb	%dl, 1(%rax)
	.loc 1 54 51
	movq	-72(%rbp), %rax
	movzbl	9(%rax), %edx
	.loc 1 54 36
	movq	-80(%rbp), %rax
	movb	%dl, 2(%rax)
	.loc 1 55 17
	movq	-80(%rbp), %rax
	addq	$16, %rax
	movq	%rax, %rdi
	movabsq	$list_link_init, %rax
	call	*%rax
.LVL6:
	.loc 1 56 17
	movq	-80(%rbp), %rax
	addq	$16, %rax
	movq	%rax, %rsi
	movabsq	$pcie_wrapper_list, %rax
	movq	%rax, %rdi
	movabsq	$list_insert_tail, %rax
	call	*%rax
.LVL7:
	jmp	.L27
.L31:
	.loc 1 48 21
	nop
.L27:
.LBE6:
	.loc 1 43 75 discriminator 2
	addl	$1, -44(%rbp)
.L24:
	.loc 1 43 50 discriminator 1
	movl	-44(%rbp), %eax
	cmpl	-60(%rbp), %eax
	jb	.L28
.LBE5:
.LBE4:
	.loc 1 37 75 discriminator 2
	addl	$1, -40(%rbp)
.L21:
	.loc 1 37 42 discriminator 1
	cmpl	$31, -40(%rbp)
	jbe	.L29
.LBE3:
	.loc 1 35 52 discriminator 2
	addl	$1, -36(%rbp)
.L20:
	.loc 1 35 32 discriminator 1
	cmpl	$255, -36(%rbp)
	jbe	.L30
.LBE2:
	.loc 1 60 1
	nop
	nop
	addq	$56, %rsp
	popq	%rbx
	.cfi_restore 3
	popq	%r12
	.cfi_restore 12
	popq	%r13
	.cfi_restore 13
	popq	%rbp
	.cfi_restore 6
	.cfi_def_cfa 7, 8
	ret
	.cfi_endproc
.LFE10:
	.size	pci_init, .-pci_init
	.globl	pcie_lookup
	.type	pcie_lookup, @function
pcie_lookup:
.LFB11:
	.loc 1 63 1
	.cfi_startproc
	pushq	%rbp
	.cfi_def_cfa_offset 16
	.cfi_offset 6, -16
	movq	%rsp, %rbp
	.cfi_def_cfa_register 6
	subq	$32, %rsp
	movl	%esi, %ecx
	movl	%edx, %eax
	movl	%edi, %edx
	movb	%dl, -20(%rbp)
	movl	%ecx, %edx
	movb	%dl, -24(%rbp)
	movb	%al, -28(%rbp)
.LBB7:
	.loc 1 64 5
	movabsq	$pcie_wrapper_list, %rax
	movq	(%rax), %rax
	subq	$16, %rax
	movq	%rax, -8(%rbp)
	movq	-8(%rbp), %rax
	movq	16(%rax), %rax
	subq	$16, %rax
	movq	%rax, -16(%rbp)
	jmp	.L33
.L39:
	.loc 1 67 12
	cmpb	$-1, -20(%rbp)
	je	.L34
	.loc 1 67 56 discriminator 2
	movq	-8(%rbp), %rax
	movzbl	(%rax), %eax
	.loc 1 67 45 discriminator 2
	cmpb	%al, -20(%rbp)
	jne	.L35
.L34:
	.loc 1 67 75 discriminator 3
	cmpb	$-1, -24(%rbp)
	je	.L36
	.loc 1 69 22
	movq	-8(%rbp), %rax
	movzbl	1(%rax), %eax
	.loc 1 68 48
	cmpb	%al, -24(%rbp)
	jne	.L35
.L36:
	.loc 1 69 47
	cmpb	$-1, -28(%rbp)
	je	.L37
	.loc 1 71 22
	movq	-8(%rbp), %rax
	movzbl	2(%rax), %eax
	.loc 1 70 49
	cmpb	%al, -28(%rbp)
	jne	.L35
.L37:
	.loc 1 73 27
	movq	-8(%rbp), %rax
	movq	8(%rax), %rax
	jmp	.L38
.L35:
	.loc 1 64 5 discriminator 2
	movq	-16(%rbp), %rax
	movq	%rax, -8(%rbp)
	movq	-8(%rbp), %rax
	movq	16(%rax), %rax
	subq	$16, %rax
	movq	%rax, -16(%rbp)
.L33:
	.loc 1 64 5 is_stmt 0 discriminator 1
	movq	-8(%rbp), %rax
	leaq	16(%rax), %rdx
	movabsq	$pcie_wrapper_list, %rax
	cmpq	%rax, %rdx
	jne	.L39
.LBE7:
	.loc 1 76 12 is_stmt 1
	movl	$0, %eax
.L38:
	.loc 1 77 1
	leave
	.cfi_restore 6
	.cfi_def_cfa 7, 8
	ret
	.cfi_endproc
.LFE11:
	.size	pcie_lookup, .-pcie_lookup
	.section	.rodata
	.align 8
	.type	__func__.0, @object
	.size	__func__.0, 9
__func__.0:
	.string	"pci_init"
	.text
.Letext0:
	.file 4 "include/types.h"
	.file 5 "include/util/list.h"
	.file 6 "include/drivers/pcie.h"
	.file 7 "include/mm/pagetable.h"
	.file 8 "include/mm/kmalloc.h"
	.file 9 "include/main/acpi.h"
	.section	.note.GNU-stack,"",@progbits
