	.file	"screen.c"
	.text
.Ltext0:
	.file 1 "drivers/screen.c"
	.type	intr_enabled, @function
intr_enabled:
.LFB0:
	.file 2 "include/main/interrupt.h"
	.loc 2 82 1
	.cfi_startproc
	pushq	%rbp
	.cfi_def_cfa_offset 16
	.cfi_offset 6, -16
	movq	%rsp, %rbp
	.cfi_def_cfa_register 6
	subq	$16, %rsp
	.loc 2 84 5
#APP
# 84 "include/main/interrupt.h" 1
	pushf; pop %rax; and $0x200, %rax;
# 0 "" 2
#NO_APP
	movq	%rax, -8(%rbp)
	.loc 2 86 12
	movq	-8(%rbp), %rax
	.loc 2 87 1
	leave
	.cfi_restore 6
	.cfi_def_cfa 7, 8
	ret
	.cfi_endproc
.LFE0:
	.size	intr_enabled, .-intr_enabled
	.type	intr_enable, @function
intr_enable:
.LFB1:
	.loc 2 89 34
	.cfi_startproc
	pushq	%rbp
	.cfi_def_cfa_offset 16
	.cfi_offset 6, -16
	movq	%rsp, %rbp
	.cfi_def_cfa_register 6
	.loc 2 89 36
#APP
# 89 "include/main/interrupt.h" 1
	sti
# 0 "" 2
	.loc 2 89 61
#NO_APP
	nop
	popq	%rbp
	.cfi_restore 6
	.cfi_def_cfa 7, 8
	ret
	.cfi_endproc
.LFE1:
	.size	intr_enable, .-intr_enable
	.type	intr_disable, @function
intr_disable:
.LFB2:
	.loc 2 91 35
	.cfi_startproc
	pushq	%rbp
	.cfi_def_cfa_offset 16
	.cfi_offset 6, -16
	movq	%rsp, %rbp
	.cfi_def_cfa_register 6
	.loc 2 91 37
#APP
# 91 "include/main/interrupt.h" 1
	cli
# 0 "" 2
	.loc 2 91 62
#NO_APP
	nop
	popq	%rbp
	.cfi_restore 6
	.cfi_def_cfa 7, 8
	ret
	.cfi_endproc
.LFE2:
	.size	intr_disable, .-intr_disable
	.type	intr_wait, @function
intr_wait:
.LFB3:
	.loc 2 98 1
	.cfi_startproc
	pushq	%rbp
	.cfi_def_cfa_offset 16
	.cfi_offset 6, -16
	movq	%rsp, %rbp
	.cfi_def_cfa_register 6
	.loc 2 105 5
#APP
# 105 "include/main/interrupt.h" 1
	sti; hlt
# 0 "" 2
	.loc 2 106 1
#NO_APP
	nop
	popq	%rbp
	.cfi_restore 6
	.cfi_def_cfa 7, 8
	ret
	.cfi_endproc
.LFE3:
	.size	intr_wait, .-intr_wait
	.type	equals, @function
equals:
.LFB4:
	.file 3 "include/util/debug.h"
	.loc 3 280 1
	.cfi_startproc
	pushq	%rbp
	.cfi_def_cfa_offset 16
	.cfi_offset 6, -16
	movq	%rsp, %rbp
	.cfi_def_cfa_register 6
	subq	$16, %rsp
	movq	%rdi, -8(%rbp)
	movq	%rsi, -16(%rbp)
	.loc 3 281 14
	movq	-8(%rbp), %rax
	cmpq	-16(%rbp), %rax
	sete	%al
	movzbl	%al, %eax
	.loc 3 282 1
	leave
	.cfi_restore 6
	.cfi_def_cfa 7, 8
	ret
	.cfi_endproc
.LFE4:
	.size	equals, .-equals
	.type	notequals, @function
notequals:
.LFB5:
	.loc 3 284 39
	.cfi_startproc
	pushq	%rbp
	.cfi_def_cfa_offset 16
	.cfi_offset 6, -16
	movq	%rsp, %rbp
	.cfi_def_cfa_register 6
	subq	$16, %rsp
	movq	%rdi, -8(%rbp)
	movq	%rsi, -16(%rbp)
	.loc 3 284 50
	movq	-8(%rbp), %rax
	cmpq	-16(%rbp), %rax
	setne	%al
	movzbl	%al, %eax
	.loc 3 284 56
	leave
	.cfi_restore 6
	.cfi_def_cfa 7, 8
	ret
	.cfi_endproc
.LFE5:
	.size	notequals, .-notequals
	.type	lessthan, @function
lessthan:
.LFB6:
	.loc 3 286 38
	.cfi_startproc
	pushq	%rbp
	.cfi_def_cfa_offset 16
	.cfi_offset 6, -16
	movq	%rsp, %rbp
	.cfi_def_cfa_register 6
	subq	$16, %rsp
	movq	%rdi, -8(%rbp)
	movq	%rsi, -16(%rbp)
	.loc 3 286 49
	movq	-8(%rbp), %rax
	cmpq	-16(%rbp), %rax
	setl	%al
	movzbl	%al, %eax
	.loc 3 286 54
	leave
	.cfi_restore 6
	.cfi_def_cfa 7, 8
	ret
	.cfi_endproc
.LFE6:
	.size	lessthan, .-lessthan
	.type	greaterthan, @function
greaterthan:
.LFB7:
	.loc 3 288 41
	.cfi_startproc
	pushq	%rbp
	.cfi_def_cfa_offset 16
	.cfi_offset 6, -16
	movq	%rsp, %rbp
	.cfi_def_cfa_register 6
	subq	$16, %rsp
	movq	%rdi, -8(%rbp)
	movq	%rsi, -16(%rbp)
	.loc 3 288 52
	movq	-8(%rbp), %rax
	cmpq	-16(%rbp), %rax
	setg	%al
	movzbl	%al, %eax
	.loc 3 288 57
	leave
	.cfi_restore 6
	.cfi_def_cfa 7, 8
	ret
	.cfi_endproc
.LFE7:
	.size	greaterthan, .-greaterthan
	.type	lessthaneq, @function
lessthaneq:
.LFB8:
	.loc 3 290 40
	.cfi_startproc
	pushq	%rbp
	.cfi_def_cfa_offset 16
	.cfi_offset 6, -16
	movq	%rsp, %rbp
	.cfi_def_cfa_register 6
	subq	$16, %rsp
	movq	%rdi, -8(%rbp)
	movq	%rsi, -16(%rbp)
	.loc 3 290 51
	movq	-8(%rbp), %rax
	cmpq	-16(%rbp), %rax
	setle	%al
	movzbl	%al, %eax
	.loc 3 290 57
	leave
	.cfi_restore 6
	.cfi_def_cfa 7, 8
	ret
	.cfi_endproc
.LFE8:
	.size	lessthaneq, .-lessthaneq
	.type	greaterthaneq, @function
greaterthaneq:
.LFB9:
	.loc 3 292 43
	.cfi_startproc
	pushq	%rbp
	.cfi_def_cfa_offset 16
	.cfi_offset 6, -16
	movq	%rsp, %rbp
	.cfi_def_cfa_register 6
	subq	$16, %rsp
	movq	%rdi, -8(%rbp)
	movq	%rsi, -16(%rbp)
	.loc 3 292 54
	movq	-8(%rbp), %rax
	cmpq	-16(%rbp), %rax
	setge	%al
	movzbl	%al, %eax
	.loc 3 292 60
	leave
	.cfi_restore 6
	.cfi_def_cfa 7, 8
	ret
	.cfi_endproc
.LFE9:
	.size	greaterthaneq, .-greaterthaneq
	.type	outb, @function
outb:
.LFB10:
	.file 4 "include/main/io.h"
	.loc 4 7 1
	.cfi_startproc
	pushq	%rbp
	.cfi_def_cfa_offset 16
	.cfi_offset 6, -16
	movq	%rsp, %rbp
	.cfi_def_cfa_register 6
	subq	$8, %rsp
	movl	%edi, %edx
	movl	%esi, %eax
	movw	%dx, -4(%rbp)
	movb	%al, -8(%rbp)
	.loc 4 8 5
	movzbl	-8(%rbp), %eax
	movzwl	-4(%rbp), %edx
#APP
# 8 "include/main/io.h" 1
	outb %al,%dx
# 0 "" 2
	.loc 4 9 1
#NO_APP
	nop
	leave
	.cfi_restore 6
	.cfi_def_cfa 7, 8
	ret
	.cfi_endproc
.LFE10:
	.size	outb, .-outb
	.type	inb, @function
inb:
.LFB11:
	.loc 4 12 1
	.cfi_startproc
	pushq	%rbp
	.cfi_def_cfa_offset 16
	.cfi_offset 6, -16
	movq	%rsp, %rbp
	.cfi_def_cfa_register 6
	subq	$24, %rsp
	movl	%edi, %eax
	movw	%ax, -20(%rbp)
	.loc 4 14 5
	movzwl	-20(%rbp), %eax
	movl	%eax, %edx
#APP
# 14 "include/main/io.h" 1
	inb %dx,%al
# 0 "" 2
#NO_APP
	movb	%al, -1(%rbp)
	.loc 4 17 12
	movzbl	-1(%rbp), %eax
	.loc 4 18 1
	leave
	.cfi_restore 6
	.cfi_def_cfa 7, 8
	ret
	.cfi_endproc
.LFE11:
	.size	inb, .-inb
	.type	outw, @function
outw:
.LFB12:
	.loc 4 21 1
	.cfi_startproc
	pushq	%rbp
	.cfi_def_cfa_offset 16
	.cfi_offset 6, -16
	movq	%rsp, %rbp
	.cfi_def_cfa_register 6
	subq	$8, %rsp
	movl	%edi, %edx
	movl	%esi, %eax
	movw	%dx, -4(%rbp)
	movw	%ax, -8(%rbp)
	.loc 4 22 5
	movzwl	-8(%rbp), %eax
	movzwl	-4(%rbp), %edx
#APP
# 22 "include/main/io.h" 1
	outw %ax,%dx
# 0 "" 2
	.loc 4 23 1
#NO_APP
	nop
	leave
	.cfi_restore 6
	.cfi_def_cfa 7, 8
	ret
	.cfi_endproc
.LFE12:
	.size	outw, .-outw
	.type	inw, @function
inw:
.LFB13:
	.loc 4 26 1
	.cfi_startproc
	pushq	%rbp
	.cfi_def_cfa_offset 16
	.cfi_offset 6, -16
	movq	%rsp, %rbp
	.cfi_def_cfa_register 6
	subq	$24, %rsp
	movl	%edi, %eax
	movw	%ax, -20(%rbp)
	.loc 4 28 5
	movzwl	-20(%rbp), %eax
	movl	%eax, %edx
#APP
# 28 "include/main/io.h" 1
	inw %dx,%ax
# 0 "" 2
#NO_APP
	movw	%ax, -2(%rbp)
	.loc 4 31 12
	movzwl	-2(%rbp), %eax
	.loc 4 32 1
	leave
	.cfi_restore 6
	.cfi_def_cfa 7, 8
	ret
	.cfi_endproc
.LFE13:
	.size	inw, .-inw
	.type	outl, @function
outl:
.LFB14:
	.loc 4 35 1
	.cfi_startproc
	pushq	%rbp
	.cfi_def_cfa_offset 16
	.cfi_offset 6, -16
	movq	%rsp, %rbp
	.cfi_def_cfa_register 6
	subq	$8, %rsp
	movl	%edi, %eax
	movl	%esi, -8(%rbp)
	movw	%ax, -4(%rbp)
	.loc 4 36 5
	movl	-8(%rbp), %eax
	movzwl	-4(%rbp), %edx
#APP
# 36 "include/main/io.h" 1
	outl %eax,%dx
# 0 "" 2
	.loc 4 37 1
#NO_APP
	nop
	leave
	.cfi_restore 6
	.cfi_def_cfa 7, 8
	ret
	.cfi_endproc
.LFE14:
	.size	outl, .-outl
	.type	inl, @function
inl:
.LFB15:
	.loc 4 40 1
	.cfi_startproc
	pushq	%rbp
	.cfi_def_cfa_offset 16
	.cfi_offset 6, -16
	movq	%rsp, %rbp
	.cfi_def_cfa_register 6
	subq	$24, %rsp
	movl	%edi, %eax
	movw	%ax, -20(%rbp)
	.loc 4 42 5
	movzwl	-20(%rbp), %eax
	movl	%eax, %edx
#APP
# 42 "include/main/io.h" 1
	inl %dx,%eax
# 0 "" 2
#NO_APP
	movl	%eax, -4(%rbp)
	.loc 4 45 12
	movl	-4(%rbp), %eax
	.loc 4 46 1
	leave
	.cfi_restore 6
	.cfi_def_cfa 7, 8
	ret
	.cfi_endproc
.LFE15:
	.size	inl, .-inl
	.data
	.align 8
	.type	vga_textbuffer_phys, @object
	.size	vga_textbuffer_phys, 8
vga_textbuffer_phys:
	.quad	753664
	.local	vga_textbuffer
	.comm	vga_textbuffer,8,8
	.local	vga_blank_screen
	.comm	vga_blank_screen,4000,32
	.globl	vga_blank_row
	.bss
	.align 32
	.type	vga_blank_row, @object
	.size	vga_blank_row, 160
vga_blank_row:
	.zero	160
	.text
	.globl	vga_enable_cursor
	.type	vga_enable_cursor, @function
vga_enable_cursor:
.LFB16:
	.loc 1 437 1
	.cfi_startproc
	pushq	%rbp
	.cfi_def_cfa_offset 16
	.cfi_offset 6, -16
	movq	%rsp, %rbp
	.cfi_def_cfa_register 6
	subq	$32, %rsp
	movw	$980, -22(%rbp)
	movb	$10, -23(%rbp)
.LBB26:
.LBB27:
	.loc 4 8 5
	movzbl	-23(%rbp), %eax
	movzwl	-22(%rbp), %edx
#APP
# 8 "include/main/io.h" 1
	outb %al,%dx
# 0 "" 2
	.loc 4 9 1
#NO_APP
	nop
	movw	$981, -18(%rbp)
.LBE27:
.LBE26:
.LBB28:
.LBB29:
	.loc 4 14 5
	movzwl	-18(%rbp), %eax
	movl	%eax, %edx
#APP
# 14 "include/main/io.h" 1
	inb %dx,%al
# 0 "" 2
#NO_APP
	movb	%al, -19(%rbp)
	.loc 4 17 12
	movzbl	-19(%rbp), %eax
.LBE29:
.LBE28:
	.loc 1 439 37
	movzbl	%al, %eax
	.loc 1 439 5
	andl	$192, %eax
	movw	$981, -14(%rbp)
	movb	%al, -15(%rbp)
.LBB30:
.LBB31:
	.loc 4 8 5
	movzbl	-15(%rbp), %eax
	movzwl	-14(%rbp), %edx
#APP
# 8 "include/main/io.h" 1
	outb %al,%dx
# 0 "" 2
	.loc 4 9 1
#NO_APP
	nop
	movw	$980, -10(%rbp)
	movb	$11, -11(%rbp)
.LBE31:
.LBE30:
.LBB32:
.LBB33:
	.loc 4 8 5
	movzbl	-11(%rbp), %eax
	movzwl	-10(%rbp), %edx
#APP
# 8 "include/main/io.h" 1
	outb %al,%dx
# 0 "" 2
	.loc 4 9 1
#NO_APP
	nop
	movw	$981, -6(%rbp)
.LBE33:
.LBE32:
.LBB34:
.LBB35:
	.loc 4 14 5
	movzwl	-6(%rbp), %eax
	movl	%eax, %edx
#APP
# 14 "include/main/io.h" 1
	inb %dx,%al
# 0 "" 2
#NO_APP
	movb	%al, -7(%rbp)
	.loc 4 17 12
	movzbl	-7(%rbp), %eax
.LBE35:
.LBE34:
	.loc 1 442 29
	andl	$-32, %eax
	.loc 1 442 37
	orl	$15, %eax
	.loc 1 442 5
	movzbl	%al, %eax
	movw	$981, -2(%rbp)
	movb	%al, -3(%rbp)
.LBB36:
.LBB37:
	.loc 4 8 5
	movzbl	-3(%rbp), %eax
	movzwl	-2(%rbp), %edx
#APP
# 8 "include/main/io.h" 1
	outb %al,%dx
# 0 "" 2
	.loc 4 9 1
#NO_APP
	nop
.LBE37:
.LBE36:
	.loc 1 443 1
	nop
	leave
	.cfi_restore 6
	.cfi_def_cfa 7, 8
	ret
	.cfi_endproc
.LFE16:
	.size	vga_enable_cursor, .-vga_enable_cursor
	.globl	vga_disable_cursor
	.type	vga_disable_cursor, @function
vga_disable_cursor:
.LFB17:
	.loc 1 446 1
	.cfi_startproc
	pushq	%rbp
	.cfi_def_cfa_offset 16
	.cfi_offset 6, -16
	movq	%rsp, %rbp
	.cfi_def_cfa_register 6
	subq	$16, %rsp
	movw	$980, -6(%rbp)
	movb	$10, -7(%rbp)
.LBB38:
.LBB39:
	.loc 4 8 5
	movzbl	-7(%rbp), %eax
	movzwl	-6(%rbp), %edx
#APP
# 8 "include/main/io.h" 1
	outb %al,%dx
# 0 "" 2
	.loc 4 9 1
#NO_APP
	nop
	movw	$981, -2(%rbp)
	movb	$32, -3(%rbp)
.LBE39:
.LBE38:
.LBB40:
.LBB41:
	.loc 4 8 5
	movzbl	-3(%rbp), %eax
	movzwl	-2(%rbp), %edx
#APP
# 8 "include/main/io.h" 1
	outb %al,%dx
# 0 "" 2
	.loc 4 9 1
#NO_APP
	nop
.LBE41:
.LBE40:
	.loc 1 449 1
	nop
	leave
	.cfi_restore 6
	.cfi_def_cfa 7, 8
	ret
	.cfi_endproc
.LFE17:
	.size	vga_disable_cursor, .-vga_disable_cursor
	.section	.rodata
.LC0:
	.string	"vga_textbuffer"
.LC1:
	.string	"assertion failed: %s"
.LC2:
	.string	"drivers/screen.c"
	.text
	.globl	vga_init
	.type	vga_init, @function
vga_init:
.LFB18:
	.loc 1 452 1
	.cfi_startproc
	pushq	%rbp
	.cfi_def_cfa_offset 16
	.cfi_offset 6, -16
	movq	%rsp, %rbp
	.cfi_def_cfa_register 6
	pushq	%r13
	pushq	%r12
	pushq	%rbx
	subq	$40, %rsp
	.cfi_offset 13, -24
	.cfi_offset 12, -32
	.cfi_offset 3, -40
	.loc 1 454 12
	movq	$1, -56(%rbp)
	.loc 1 456 22
	movq	-56(%rbp), %rax
	movq	%rax, %rdi
	movabsq	$page_alloc_n, %rax
	call	*%rax
.LVL0:
	.loc 1 456 20
	movabsq	$vga_textbuffer, %rdx
	movq	%rax, (%rdx)
	.loc 1 457 5
	movabsq	$vga_textbuffer, %rax
	movq	(%rax), %rax
	testq	%rax, %rax
	jne	.L32
	.loc 1 457 5 is_stmt 0 discriminator 1
	movabsq	$.LC0, %r8
	movabsq	$.LC1, %rax
	movq	%rax, %rcx
	movabsq	$__func__.1, %rax
	movq	%rax, %rdx
	movl	$457, %esi
	movabsq	$.LC2, %rax
	movq	%rax, %rdi
	movl	$0, %eax
	movabsq	$dbg_panic, %r9
	call	*%r9
.LVL1:
.L32:
	.loc 1 461 47 is_stmt 1
	movq	-56(%rbp), %rax
	salq	$12, %rax
	movq	%rax, %rdx
	.loc 1 461 18
	movabsq	$vga_textbuffer, %rax
	movq	(%rax), %rax
	.loc 1 459 5
	leaq	(%rdx,%rax), %r12
	movabsq	$vga_textbuffer, %rax
	movq	(%rax), %rax
	movq	%rax, %r13
	movabsq	$vga_textbuffer_phys, %rax
	movq	(%rax), %rbx
	movl	$0, %eax
	movabsq	$pt_get, %rdx
	call	*%rdx
.LVL2:
	movl	$3, %r9d
	movl	$3, %r8d
	movq	%r12, %rcx
	movq	%r13, %rdx
	movq	%rbx, %rsi
	movq	%rax, %rdi
	movabsq	$pt_map_range, %rax
	call	*%rax
.LVL3:
	.loc 1 463 5
	movl	$0, %eax
	movabsq	$pt_get, %rdx
	call	*%rdx
.LVL4:
	movq	%rax, %rdi
	movabsq	$pt_set, %rax
	call	*%rax
.LVL5:
.LBB42:
	.loc 1 465 17
	movq	$0, -40(%rbp)
	.loc 1 465 5
	jmp	.L33
.L34:
	.loc 1 467 26 discriminator 3
	movabsq	$vga_blank_row, %rdx
	movq	-40(%rbp), %rax
	movw	$3872, (%rdx,%rax,2)
	.loc 1 465 40 discriminator 3
	addq	$1, -40(%rbp)
.L33:
	.loc 1 465 26 discriminator 1
	cmpq	$79, -40(%rbp)
	jbe	.L34
.LBE42:
.LBB43:
	.loc 1 469 17
	movq	$0, -48(%rbp)
	.loc 1 469 5
	jmp	.L35
.L36:
	.loc 1 471 16 discriminator 3
	movq	-48(%rbp), %rdx
	movq	%rdx, %rax
	salq	$2, %rax
	addq	%rdx, %rax
	salq	$5, %rax
	movabsq	$vga_blank_screen, %rdx
	addq	%rdx, %rax
	.loc 1 471 9 discriminator 3
	movl	$160, %edx
	movabsq	$vga_blank_row, %rcx
	movq	%rcx, %rsi
	movq	%rax, %rdi
	movabsq	$memcpy, %rax
	call	*%rax
.LVL6:
	.loc 1 469 41 discriminator 3
	addq	$1, -48(%rbp)
.L35:
	.loc 1 469 26 discriminator 1
	cmpq	$24, -48(%rbp)
	jbe	.L36
.LBE43:
	.loc 1 474 5
	movl	$0, %eax
	movabsq	$vga_enable_cursor, %rdx
	call	*%rdx
.LVL7:
	.loc 1 475 5
	movl	$0, %eax
	movabsq	$vga_clear_screen, %rdx
	call	*%rdx
.LVL8:
	.loc 1 476 1
	nop
	addq	$40, %rsp
	popq	%rbx
	.cfi_restore 3
	popq	%r12
	.cfi_restore 12
	popq	%r13
	.cfi_restore 13
	popq	%rbp
	.cfi_restore 6
	.cfi_def_cfa 7, 8
	ret
	.cfi_endproc
.LFE18:
	.size	vga_init, .-vga_init
	.globl	vga_set_cursor
	.type	vga_set_cursor, @function
vga_set_cursor:
.LFB19:
	.loc 1 479 1
	.cfi_startproc
	pushq	%rbp
	.cfi_def_cfa_offset 16
	.cfi_offset 6, -16
	movq	%rsp, %rbp
	.cfi_def_cfa_register 6
	subq	$48, %rsp
	movq	%rdi, -40(%rbp)
	movq	%rsi, -48(%rbp)
	.loc 1 480 38
	movq	-40(%rbp), %rax
	movl	%eax, %edx
	movl	%edx, %eax
	sall	$2, %eax
	addl	%edx, %eax
	sall	$4, %eax
	movl	%eax, %edx
	movq	-48(%rbp), %rax
	.loc 1 480 14
	addl	%edx, %eax
	movw	%ax, -2(%rbp)
	movw	$980, -16(%rbp)
	movb	$15, -17(%rbp)
.LBB44:
.LBB45:
	.loc 4 8 5
	movzbl	-17(%rbp), %eax
	movzwl	-16(%rbp), %edx
#APP
# 8 "include/main/io.h" 1
	outb %al,%dx
# 0 "" 2
	.loc 4 9 1
#NO_APP
	nop
.LBE45:
.LBE44:
	.loc 1 482 17
	movzwl	-2(%rbp), %eax
	.loc 1 482 5
	movzbl	%al, %eax
	movw	$981, -12(%rbp)
	movb	%al, -13(%rbp)
.LBB46:
.LBB47:
	.loc 4 8 5
	movzbl	-13(%rbp), %eax
	movzwl	-12(%rbp), %edx
#APP
# 8 "include/main/io.h" 1
	outb %al,%dx
# 0 "" 2
	.loc 4 9 1
#NO_APP
	nop
	movw	$980, -8(%rbp)
	movb	$14, -9(%rbp)
.LBE47:
.LBE46:
.LBB48:
.LBB49:
	.loc 4 8 5
	movzbl	-9(%rbp), %eax
	movzwl	-8(%rbp), %edx
#APP
# 8 "include/main/io.h" 1
	outb %al,%dx
# 0 "" 2
	.loc 4 9 1
#NO_APP
	nop
.LBE49:
.LBE48:
	.loc 1 484 17
	movzwl	-2(%rbp), %eax
	shrw	$8, %ax
	.loc 1 484 5
	movzbl	%al, %eax
	movw	$981, -4(%rbp)
	movb	%al, -5(%rbp)
.LBB50:
.LBB51:
	.loc 4 8 5
	movzbl	-5(%rbp), %eax
	movzwl	-4(%rbp), %edx
#APP
# 8 "include/main/io.h" 1
	outb %al,%dx
# 0 "" 2
	.loc 4 9 1
#NO_APP
	nop
.LBE51:
.LBE50:
	.loc 1 485 1
	nop
	leave
	.cfi_restore 6
	.cfi_def_cfa 7, 8
	ret
	.cfi_endproc
.LFE19:
	.size	vga_set_cursor, .-vga_set_cursor
	.globl	vga_clear_screen
	.type	vga_clear_screen, @function
vga_clear_screen:
.LFB20:
	.loc 1 488 1
	.cfi_startproc
	pushq	%rbp
	.cfi_def_cfa_offset 16
	.cfi_offset 6, -16
	movq	%rsp, %rbp
	.cfi_def_cfa_register 6
	.loc 1 489 5
	movabsq	$vga_textbuffer, %rax
	movq	(%rax), %rax
	movl	$4000, %edx
	movabsq	$vga_blank_screen, %rcx
	movq	%rcx, %rsi
	movq	%rax, %rdi
	movabsq	$memcpy, %rax
	call	*%rax
.LVL9:
	.loc 1 490 1
	nop
	popq	%rbp
	.cfi_restore 6
	.cfi_def_cfa 7, 8
	ret
	.cfi_endproc
.LFE20:
	.size	vga_clear_screen, .-vga_clear_screen
	.section	.rodata
	.align 8
.LC3:
	.string	"row < VGA_HEIGHT && col < VGA_WIDTH"
	.text
	.globl	vga_write_char_at
	.type	vga_write_char_at, @function
vga_write_char_at:
.LFB21:
	.loc 1 493 1
	.cfi_startproc
	pushq	%rbp
	.cfi_def_cfa_offset 16
	.cfi_offset 6, -16
	movq	%rsp, %rbp
	.cfi_def_cfa_register 6
	subq	$32, %rsp
	movq	%rdi, -8(%rbp)
	movq	%rsi, -16(%rbp)
	movl	%edx, %eax
	movw	%ax, -20(%rbp)
	.loc 1 494 5
	cmpq	$24, -8(%rbp)
	ja	.L40
	.loc 1 494 5 is_stmt 0 discriminator 2
	cmpq	$79, -16(%rbp)
	jbe	.L41
.L40:
	.loc 1 494 5 discriminator 3
	movabsq	$.LC3, %r8
	movabsq	$.LC1, %rax
	movq	%rax, %rcx
	movabsq	$__func__.0, %rax
	movq	%rax, %rdx
	movl	$494, %esi
	movabsq	$.LC2, %rax
	movq	%rax, %rdi
	movl	$0, %eax
	movabsq	$dbg_panic, %r9
	call	*%r9
.LVL10:
.L41:
	.loc 1 495 19 is_stmt 1
	movabsq	$vga_textbuffer, %rax
	movq	(%rax), %rcx
	.loc 1 495 25
	movq	-8(%rbp), %rdx
	movq	%rdx, %rax
	salq	$2, %rax
	addq	%rdx, %rax
	salq	$4, %rax
	movq	%rax, %rdx
	.loc 1 495 38
	movq	-16(%rbp), %rax
	addq	%rdx, %rax
	.loc 1 495 19
	addq	%rax, %rax
	leaq	(%rcx,%rax), %rdx
	.loc 1 495 45
	movzwl	-20(%rbp), %eax
	movw	%ax, (%rdx)
	.loc 1 496 1
	nop
	leave
	.cfi_restore 6
	.cfi_def_cfa 7, 8
	ret
	.cfi_endproc
.LFE21:
	.size	vga_write_char_at, .-vga_write_char_at
	.section	.rodata
.LC4:
	.string	"Weenix has halted cleanly!"
	.data
	.align 8
	.type	shutdown_message, @object
	.size	shutdown_message, 8
shutdown_message:
	.quad	.LC4
	.text
	.globl	screen_print_shutdown
	.type	screen_print_shutdown, @function
screen_print_shutdown:
.LFB22:
	.loc 1 500 1
	.cfi_startproc
	pushq	%rbp
	.cfi_def_cfa_offset 16
	.cfi_offset 6, -16
	movq	%rsp, %rbp
	.cfi_def_cfa_register 6
	subq	$16, %rsp
	.loc 1 501 5
	movl	$0, %eax
	movabsq	$vga_disable_cursor, %rdx
	call	*%rdx
.LVL11:
	.loc 1 502 5
	movl	$0, %eax
	movabsq	$vga_clear_screen, %rdx
	call	*%rdx
.LVL12:
	.loc 1 503 26
	movabsq	$shutdown_message, %rax
	movq	(%rax), %rax
	movq	%rax, %rdi
	movabsq	$strlen, %rax
	call	*%rax
.LVL13:
	.loc 1 503 24
	movl	$80, %edx
	subq	%rax, %rdx
	.loc 1 503 52
	movq	%rdx, %rax
	shrq	%rax
	.loc 1 503 9
	movl	%eax, -12(%rbp)
	.loc 1 504 9
	movl	$12, -16(%rbp)
.LBB52:
	.loc 1 506 17
	movq	$0, -8(%rbp)
	.loc 1 506 5
	jmp	.L43
.L44:
	.loc 1 509 71 discriminator 3
	movabsq	$shutdown_message, %rax
	movq	(%rax), %rdx
	movq	-8(%rbp), %rax
	addq	%rdx, %rax
	movzbl	(%rax), %eax
	cbtw
	.loc 1 509 53 discriminator 3
	orb	$15, %ah
	.loc 1 508 9 discriminator 3
	movzwl	%ax, %edx
	movl	-12(%rbp), %eax
	movslq	%eax, %rcx
	movq	-8(%rbp), %rax
	addq	%rax, %rcx
	movl	-16(%rbp), %eax
	cltq
	movq	%rcx, %rsi
	movq	%rax, %rdi
	movabsq	$vga_write_char_at, %rax
	call	*%rax
.LVL14:
	.loc 1 506 55 discriminator 3
	addq	$1, -8(%rbp)
.L43:
	.loc 1 506 28 discriminator 1
	movabsq	$shutdown_message, %rax
	movq	(%rax), %rax
	movq	%rax, %rdi
	movabsq	$strlen, %rax
	call	*%rax
.LVL15:
	.loc 1 506 26 discriminator 1
	cmpq	%rax, -8(%rbp)
	jb	.L44
.LBE52:
	.loc 1 511 1
	nop
	nop
	leave
	.cfi_restore 6
	.cfi_def_cfa 7, 8
	ret
	.cfi_endproc
.LFE22:
	.size	screen_print_shutdown, .-screen_print_shutdown
	.section	.rodata
	.align 8
	.type	__func__.1, @object
	.size	__func__.1, 9
__func__.1:
	.string	"vga_init"
	.align 16
	.type	__func__.0, @object
	.size	__func__.0, 18
__func__.0:
	.string	"vga_write_char_at"
	.text
.Letext0:
	.file 5 "include/types.h"
	.file 6 "include/mm/pagetable.h"
	.file 7 "include/util/string.h"
	.file 8 "include/mm/page.h"
	.section	.note.GNU-stack,"",@progbits
